
isoc_io_sample.out:     file format elf32-littlearm

SYMBOL TABLE:
00000000 l    d  startup	00000000 startup
00000044 l    d  prog	00000000 prog
40000000 l    d  .bss	00000000 .bss
00000000 l    d  .ARM.attributes	00000000 .ARM.attributes
00000000 l    d  .comment	00000000 .comment
00000000 l    d  .debug_line	00000000 .debug_line
00000000 l    d  .debug_info	00000000 .debug_info
00000000 l    d  .debug_abbrev	00000000 .debug_abbrev
00000000 l    d  .debug_aranges	00000000 .debug_aranges
00000000 l    d  .debug_ranges	00000000 .debug_ranges
00000000 l    d  .debug_loc	00000000 .debug_loc
00000000 l    d  .debug_pubnames	00000000 .debug_pubnames
00000000 l    d  .debug_pubtypes	00000000 .debug_pubtypes
00000000 l    d  .debug_str	00000000 .debug_str
00000000 l    d  .debug_frame	00000000 .debug_frame
00000004 l       *ABS*	00000000 UND_STACK_SIZE
00000004 l       *ABS*	00000000 ABT_STACK_SIZE
00000004 l       *ABS*	00000000 FIQ_STACK_SIZE
00000100 l       *ABS*	00000000 IRQ_STACK_SIZE
00000100 l       *ABS*	00000000 SVC_STACK_SIZE
00000010 l       *ABS*	00000000 MODE_USR
00000011 l       *ABS*	00000000 MODE_FIQ
00000012 l       *ABS*	00000000 MODE_IRQ
00000013 l       *ABS*	00000000 MODE_SVC
00000017 l       *ABS*	00000000 MODE_ABT
0000001b l       *ABS*	00000000 MODE_UND
0000001f l       *ABS*	00000000 MODE_SYS
00000080 l       *ABS*	00000000 I_BIT
00000040 l       *ABS*	00000000 F_BIT
00000044 l       prog	00000000 _start
00000044 l       prog	00000000 _mainCRTStartup
000000b0 l       prog	00000000 .end_clear_loop
000000a4 l       prog	00000000 .clear_loop
000000d4 l       prog	00000000 .end_set_loop
000000c4 l       prog	00000000 .set_loop
00000020 l       startup	00000000 _undf
00000024 l       startup	00000000 _swi
00000028 l       startup	00000000 _pabt
0000002c l       startup	00000000 _dabt
00000030 l       startup	00000000 _fiq
00000034 l       startup	00000000 __undf
00000038 l       startup	00000000 __pabt
0000003c l       startup	00000000 __dabt
00000040 l       startup	00000000 __fiq
00000000 l    df *ABS*	00000000 isoc_io_sample.c
00000000 l    df *ABS*	00000000 hwsys.c
00000000 l    df *ABS*	00000000 gfe2368-info.c
00000000 l    df *ABS*	00000000 gfe2368-util.c
00000000 l    df *ABS*	00000000 lpc23xx-mam.c
00000000 l    df *ABS*	00000000 lpc23xx-pll.c
00000000 l    df *ABS*	00000000 lpc23xx-uart.c
40000448 l     O .bss	00000079 uart0_linebuffer.1361
00000000 l    df *ABS*	00000000 lpc23xx-util.c
400004c4 l     O .bss	00000021 ibuf.1740
400004e8 l     O .bss	00000021 ibuf.1750
00000000 l    df *ABS*	00000000 printf-lpc.c
00000000 l    df *ABS*	00000000 strlen.c
00000000 l    df *ABS*	00000000 strncpy.c
00001954 l       prog	00000000 .udivsi3_skip_div0_test
00000214 g     F prog	000000bc init_color_led
00000b34 g     F prog	00000160 pllstart_fourtyeightmhz
00000fe0 g     F prog	00000060 uart0_getstring
00001428 g     F prog	000000f4 debug_val
00001040 g     F prog	00000010 util_getbitval
000017d8 g     F prog	00000030 printf_lpc
00000188 g     F prog	00000004 UNDEF_Routine
0000152c g     F prog	00000010 putchar_lpc
4000050c g       *ABS*	00000000 _bss_end__
0000151c g     F prog	00000010 putstring_lpc
00000804 g     F prog	00000068 pllstop
40000438 g     O .bss	00000008 pllstat
000007d8 g     F prog	0000002c pllfeed
000007b8 g     F prog	00000010 pllquery_fcco_mhz
00001954 g     F prog	000000f8 __udivsi3
00001410 g     F prog	00000018 debug_msg
00000cb4 g     F prog	00000010 uart0_query_stopbits
40000004 g     O .bss	00000400 outputIsocDataBuffer
00000cc4 g     F prog	00000118 uart0_init_9600
00000184 g     F prog	00000004 SWI_Routine
40000000 g     O .bss	00000004 inputIsocDataBuffer
0000086c g     F prog	00000164 pllstart_seventytwomhz
00001268 g     F prog	00000024 millisecondsToCPUTicks
40001d38 g       prog	00000000 __data_beg_src__
7fe00000 g       .ARM.attributes	00000000 __ethram_end__
00000180 g     F prog	00000004 FIQ_Routine
00001a6c g     F prog	000000cc __umodsi3
40000000 g       prog	00000000 __data_end__
000007c8 g     F prog	00000010 pllquery_cclk_mhz
7fe00000 g       .ARM.attributes	00000000 __ethram_beg__
4000050c g       *ABS*	00000000 __bss_end__
00000fbc g     F prog	00000024 uart0_getchar
40000000 g       prog	00000000 __data_beg__
0000136c g     F prog	000000a4 util_uitoa
00001868 g     F prog	000000ec strncpy
000002d0 g     F prog	00000044 all_led_off
000001f4 g     F prog	00000020 infoquery_gfe_boardtag
00000ca4 g     F prog	00000010 uart0_query_charlength
00001244 g     F prog	00000024 microsecondsToCPUTicks
000000fc g     F prog	00000080 main
000009d0 g     F prog	00000164 pllstart_sixtymhz
00001b38 g     F prog	00000004 __div0
00001d38 g       *ABS*	00000000 __end_of_text__
00001954 g     F prog	00000000 __aeabi_uidiv
4000050c g       *ABS*	00000000 __end__
0000128c g     F prog	000000e0 util_itoa
00000c94 g     F prog	00000010 uart0_query_baud
0000017c g     F prog	00000004 IRQ_Routine
7fd00000 g       .ARM.attributes	00000000 __usbram_end__
00001050 g     F prog	000001f4 util_cpsrstat
00000314 g     F prog	00000084 cycle_led
00000f04 g     F prog	00000058 uart0_putchar
0000168c g     F prog	0000014c print_lpc
00001a4c g     F prog	00000020 __aeabi_uidivmod
7fd00000 g       .ARM.attributes	00000000 __usbram_beg__
7fe00000 g       *ABS*	00000000 _end
000006ec g     F prog	0000001c mam_enable_custom
0000153c g     F prog	00000050 util_waitticks
40000000 g       .bss	00000000 __bss_beg__
00000044 g       prog	00000000 start
0000158c g     F prog	00000080 util_wait_msecs
00000ddc g     F prog	00000128 uart0_init_115200
00001808 g     F prog	00000060 strlen
00000398 g     F prog	00000338 color_led_flash
40007ffc g       *ABS*	00000000 __stack_end__
0000018c g     F prog	00000068 info_init
40000404 g     O .bss	00000034 brd
000006d0 g     F prog	0000001c mam_disable
00000708 g     F prog	000000b0 mam_enable
0000160c g     F prog	00000080 util_wait_usecs
000000e0 g       prog	00000000 endless_loop
00000f5c g     F prog	00000060 uart0_putstring
40000440 g     O .bss	00000008 uart0stat



Disassembly of section startup:

00000000 <_undf-0x20>:
/home/kwilson/Projects/gfe2368/gfe2368-usb/isoc-test/boot.s:142

.section .startup,"ax"
         .code 32
         .align 0

	b     _start						/* reset - _start			*/
   0:	ea00000f 	b	44 <start>
/home/kwilson/Projects/gfe2368/gfe2368-usb/isoc-test/boot.s:143
	ldr   pc, _undf						/* undefined - _undf		*/
   4:	e59ff014 	ldr	pc, [pc, #20]	; 20 <_undf>
/home/kwilson/Projects/gfe2368/gfe2368-usb/isoc-test/boot.s:144
	ldr   pc, _swi						/* SWI - _swi				*/
   8:	e59ff014 	ldr	pc, [pc, #20]	; 24 <_swi>
/home/kwilson/Projects/gfe2368/gfe2368-usb/isoc-test/boot.s:145
	ldr   pc, _pabt						/* program abort - _pabt	*/
   c:	e59ff014 	ldr	pc, [pc, #20]	; 28 <_pabt>
/home/kwilson/Projects/gfe2368/gfe2368-usb/isoc-test/boot.s:146
	ldr   pc, _dabt						/* data abort - _dabt		*/
  10:	e59ff014 	ldr	pc, [pc, #20]	; 2c <_dabt>
/home/kwilson/Projects/gfe2368/gfe2368-usb/isoc-test/boot.s:147
	nop									/* reserved					*/
  14:	e1a00000 	nop			; (mov r0, r0)
/home/kwilson/Projects/gfe2368/gfe2368-usb/isoc-test/boot.s:148
	ldr   pc, [pc,#-0x120]				/* IRQ - read the VIC		*/
  18:	e51ff120 	ldr	pc, [pc, #-288]	; ffffff00 <_end+0x801fff00>
/home/kwilson/Projects/gfe2368/gfe2368-usb/isoc-test/boot.s:149
	ldr   pc, _fiq						/* FIQ - _fiq				*/
  1c:	e59ff00c 	ldr	pc, [pc, #12]	; 30 <_fiq>

00000020 <_undf>:
_undf():
  20:	00000034 	.word	0x00000034

00000024 <_swi>:
_swi():
  24:	00000184 	.word	0x00000184

00000028 <_pabt>:
_pabt():
  28:	00000038 	.word	0x00000038

0000002c <_dabt>:
_dabt():
  2c:	0000003c 	.word	0x0000003c

00000030 <_fiq>:
_fiq():
  30:	00000040 	.word	0x00000040

00000034 <__undf>:
__undf():
/home/kwilson/Projects/gfe2368/gfe2368-usb/isoc-test/boot.s:157
_swi:   .word SWI_Routine       /* SWI						*/
_pabt:  .word __pabt                    /* program abort			*/
_dabt:  .word __dabt                    /* data abort				*/
_fiq:   .word __fiq                     /* FIQ						*/

__undf: b     .                         /* undefined				*/
  34:	eafffffe 	b	34 <__undf>

00000038 <__pabt>:
__pabt():
/home/kwilson/Projects/gfe2368/gfe2368-usb/isoc-test/boot.s:158
__pabt: b     .                         /* program abort			*/
  38:	eafffffe 	b	38 <__pabt>

0000003c <__dabt>:
__dabt():
/home/kwilson/Projects/gfe2368/gfe2368-usb/isoc-test/boot.s:159
__dabt: b     .                         /* data abort				*/
  3c:	eafffffe 	b	3c <__dabt>

00000040 <__fiq>:
__fiq():
/home/kwilson/Projects/gfe2368/gfe2368-usb/isoc-test/boot.s:160
__fiq:  b     .                         /* FIQ						*/
  40:	eafffffe 	b	40 <__fiq>

Disassembly of section prog:

00000044 <start>:
start():
/home/kwilson/Projects/gfe2368/gfe2368-usb/isoc-test/boot.s:49
_mainCRTStartup:

	/* Setup a stack for each mode - note that this only sets up a usable stack
	for system/user, SWI and IRQ modes.   Also each mode is setup with
	interrupts initially disabled. */
    ldr   r0, .LC6
      44:	e59f00ac 	ldr	r0, [pc, #172]	; f8 <endless_loop+0x18>
/home/kwilson/Projects/gfe2368/gfe2368-usb/isoc-test/boot.s:50
    msr   CPSR_c, #MODE_UND|I_BIT|F_BIT /* Undefined Instruction Mode
      48:	e321f0db 	msr	CPSR_c, #219	; 0xdb
/home/kwilson/Projects/gfe2368/gfe2368-usb/isoc-test/boot.s:54
    mov   sp, r0
    sub   r0, r0, #UND_STACK_SIZE
    msr   CPSR_c, #MODE_ABT|I_BIT|F_BIT /* Abort Mode */
    mov   sp, r0
      4c:	e1a0d000 	mov	sp, r0
/home/kwilson/Projects/gfe2368/gfe2368-usb/isoc-test/boot.s:55
    sub   r0, r0, #ABT_STACK_SIZE
      50:	e2400004 	sub	r0, r0, #4
/home/kwilson/Projects/gfe2368/gfe2368-usb/isoc-test/boot.s:56
    msr   CPSR_c, #MODE_FIQ|I_BIT|F_BIT /* FIQ Mode */
      54:	e321f0d1 	msr	CPSR_c, #209	; 0xd1
/home/kwilson/Projects/gfe2368/gfe2368-usb/isoc-test/boot.s:57
    mov   sp, r0
      58:	e1a0d000 	mov	sp, r0
/home/kwilson/Projects/gfe2368/gfe2368-usb/isoc-test/boot.s:58
    sub   r0, r0, #FIQ_STACK_SIZE
      5c:	e2400004 	sub	r0, r0, #4
/home/kwilson/Projects/gfe2368/gfe2368-usb/isoc-test/boot.s:59
    msr   CPSR_c, #MODE_IRQ|I_BIT|F_BIT /* IRQ Mode */
      60:	e321f0d2 	msr	CPSR_c, #210	; 0xd2
/home/kwilson/Projects/gfe2368/gfe2368-usb/isoc-test/boot.s:60
    mov   sp, r0
      64:	e1a0d000 	mov	sp, r0
/home/kwilson/Projects/gfe2368/gfe2368-usb/isoc-test/boot.s:61
    sub   r0, r0, #IRQ_STACK_SIZE
      68:	e2400c01 	sub	r0, r0, #256	; 0x100
/home/kwilson/Projects/gfe2368/gfe2368-usb/isoc-test/boot.s:62
    msr   CPSR_c, #MODE_SVC|I_BIT|F_BIT /* Supervisor Mode */
      6c:	e321f0d3 	msr	CPSR_c, #211	; 0xd3
/home/kwilson/Projects/gfe2368/gfe2368-usb/isoc-test/boot.s:63
    mov   sp, r0
      70:	e1a0d000 	mov	sp, r0
/home/kwilson/Projects/gfe2368/gfe2368-usb/isoc-test/boot.s:64
    sub   r0, r0, #SVC_STACK_SIZE
      74:	e2400c01 	sub	r0, r0, #256	; 0x100
/home/kwilson/Projects/gfe2368/gfe2368-usb/isoc-test/boot.s:65
    msr   CPSR_c, #MODE_SYS|I_BIT|F_BIT /* System Mode */
      78:	e321f0df 	msr	CPSR_c, #223	; 0xdf
/home/kwilson/Projects/gfe2368/gfe2368-usb/isoc-test/boot.s:66
    mov   sp, r0
      7c:	e1a0d000 	mov	sp, r0
/home/kwilson/Projects/gfe2368/gfe2368-usb/isoc-test/boot.s:73
	/* We want to start in supervisor mode.  Operation will switch to system
	mode when the first task starts. */
/*	msr   CPSR_c, #MODE_SVC|I_BIT|F_BIT */

        /* turn on FIQ */
	msr   CPSR_c, #MODE_SVC|F_BIT 
      80:	e321f053 	msr	CPSR_c, #83	; 0x53
/home/kwilson/Projects/gfe2368/gfe2368-usb/isoc-test/boot.s:77

	/* Clear BSS. */

	mov     a2, #0			/* Fill value */
      84:	e3a01000 	mov	r1, #0
/home/kwilson/Projects/gfe2368/gfe2368-usb/isoc-test/boot.s:78
	mov		fp, a2			/* Null frame pointer */
      88:	e1a0b001 	mov	fp, r1
/home/kwilson/Projects/gfe2368/gfe2368-usb/isoc-test/boot.s:79
	mov		r7, a2			/* Null frame pointer for Thumb */
      8c:	e1a07001 	mov	r7, r1
/home/kwilson/Projects/gfe2368/gfe2368-usb/isoc-test/boot.s:81

	ldr		r1, .LC1		/* Start of memory block */
      90:	e59f104c 	ldr	r1, [pc, #76]	; e4 <endless_loop+0x4>
/home/kwilson/Projects/gfe2368/gfe2368-usb/isoc-test/boot.s:82
	ldr		r3, .LC2		/* End of memory block */
      94:	e59f304c 	ldr	r3, [pc, #76]	; e8 <endless_loop+0x8>
/home/kwilson/Projects/gfe2368/gfe2368-usb/isoc-test/boot.s:83
	subs	r3, r3, r1      /* Length of block */
      98:	e0533001 	subs	r3, r3, r1
/home/kwilson/Projects/gfe2368/gfe2368-usb/isoc-test/boot.s:84
	beq		.end_clear_loop
      9c:	0a000003 	beq	b0 <.end_clear_loop>
/home/kwilson/Projects/gfe2368/gfe2368-usb/isoc-test/boot.s:85
	mov		r2, #0
      a0:	e3a02000 	mov	r2, #0

000000a4 <.clear_loop>:
.clear_loop():
/home/kwilson/Projects/gfe2368/gfe2368-usb/isoc-test/boot.s:88

.clear_loop:
	strb	r2, [r1], #1
      a4:	e4c12001 	strb	r2, [r1], #1
/home/kwilson/Projects/gfe2368/gfe2368-usb/isoc-test/boot.s:89
	subs	r3, r3, #1
      a8:	e2533001 	subs	r3, r3, #1
/home/kwilson/Projects/gfe2368/gfe2368-usb/isoc-test/boot.s:90
	bgt		.clear_loop
      ac:	cafffffc 	bgt	a4 <.clear_loop>

000000b0 <.end_clear_loop>:
.end_clear_loop():
/home/kwilson/Projects/gfe2368/gfe2368-usb/isoc-test/boot.s:96

.end_clear_loop:

	/* Initialise data. */

	ldr		r1, .LC3		/* Start of memory block */
      b0:	e59f1034 	ldr	r1, [pc, #52]	; ec <endless_loop+0xc>
/home/kwilson/Projects/gfe2368/gfe2368-usb/isoc-test/boot.s:97
	ldr		r2, .LC4		/* End of memory block */
      b4:	e59f2034 	ldr	r2, [pc, #52]	; f0 <endless_loop+0x10>
/home/kwilson/Projects/gfe2368/gfe2368-usb/isoc-test/boot.s:98
	ldr		r3, .LC5
      b8:	e59f3034 	ldr	r3, [pc, #52]	; f4 <endless_loop+0x14>
/home/kwilson/Projects/gfe2368/gfe2368-usb/isoc-test/boot.s:99
	subs	r3, r3, r1		/* Length of block */
      bc:	e0533001 	subs	r3, r3, r1
/home/kwilson/Projects/gfe2368/gfe2368-usb/isoc-test/boot.s:100
	beq		.end_set_loop
      c0:	0a000003 	beq	d4 <.end_set_loop>

000000c4 <.set_loop>:
.set_loop():
/home/kwilson/Projects/gfe2368/gfe2368-usb/isoc-test/boot.s:103

.set_loop:
	ldrb	r4, [r2], #1
      c4:	e4d24001 	ldrb	r4, [r2], #1
/home/kwilson/Projects/gfe2368/gfe2368-usb/isoc-test/boot.s:104
	strb	r4, [r1], #1
      c8:	e4c14001 	strb	r4, [r1], #1
/home/kwilson/Projects/gfe2368/gfe2368-usb/isoc-test/boot.s:105
	subs	r3, r3, #1
      cc:	e2533001 	subs	r3, r3, #1
/home/kwilson/Projects/gfe2368/gfe2368-usb/isoc-test/boot.s:106
	bgt		.set_loop
      d0:	cafffffb 	bgt	c4 <.set_loop>

000000d4 <.end_set_loop>:
.end_set_loop():
/home/kwilson/Projects/gfe2368/gfe2368-usb/isoc-test/boot.s:110

.end_set_loop:

	mov		r0, #0          /* no arguments  */
      d4:	e3a00000 	mov	r0, #0
/home/kwilson/Projects/gfe2368/gfe2368-usb/isoc-test/boot.s:111
	mov		r1, #0          /* no argv either */
      d8:	e3a01000 	mov	r1, #0
/home/kwilson/Projects/gfe2368/gfe2368-usb/isoc-test/boot.s:113

	bl		main
      dc:	eb000006 	bl	fc <main>

000000e0 <endless_loop>:
endless_loop():
/home/kwilson/Projects/gfe2368/gfe2368-usb/isoc-test/boot.s:116

endless_loop:
	b               endless_loop
      e0:	eafffffe 	b	e0 <endless_loop>
      e4:	40000000 	.word	0x40000000
      e8:	4000050c 	.word	0x4000050c
      ec:	40000000 	.word	0x40000000
      f0:	40001d38 	.word	0x40001d38
      f4:	40000000 	.word	0x40000000
      f8:	40007ffc 	.word	0x40007ffc

000000fc <main>:
main():
/home/kwilson/Projects/gfe2368/gfe2368-usb/isoc-test/isoc_io_sample.c:139
	main
	====
**************************************************************************/
int main(void)
{
	FIO_ENABLE;
      fc:	e3a0320e 	mov	r3, #-536870912	; 0xe0000000
     100:	e283397f 	add	r3, r3, #2080768	; 0x1fc000
     104:	e59321a0 	ldr	r2, [r3, #416]	; 0x1a0
     108:	e3822001 	orr	r2, r2, #1
/home/kwilson/Projects/gfe2368/gfe2368-usb/isoc-test/isoc_io_sample.c:138
/*************************************************************************
	main
	====
**************************************************************************/
int main(void)
{
     10c:	e52de004 	push	{lr}		; (str lr, [sp, #-4]!)
/home/kwilson/Projects/gfe2368/gfe2368-usb/isoc-test/isoc_io_sample.c:139
	FIO_ENABLE;
     110:	e58321a0 	str	r2, [r3, #416]	; 0x1a0
/home/kwilson/Projects/gfe2368/gfe2368-usb/isoc-test/isoc_io_sample.c:141

	pllstart_seventytwomhz() ;
     114:	eb0001d4 	bl	86c <pllstart_seventytwomhz>
/home/kwilson/Projects/gfe2368/gfe2368-usb/isoc-test/isoc_io_sample.c:145
	// pllstart_sixtymhz() ;
	//   pllstart_fourtyeightmhz() ;
	
	mam_enable();
     118:	eb00017a 	bl	708 <mam_enable>
/home/kwilson/Projects/gfe2368/gfe2368-usb/isoc-test/isoc_io_sample.c:147
	
	info_init();
     11c:	eb00001a 	bl	18c <info_init>
/home/kwilson/Projects/gfe2368/gfe2368-usb/isoc-test/isoc_io_sample.c:149

	uart0_init_115200() ;
     120:	eb00032d 	bl	ddc <uart0_init_115200>
/home/kwilson/Projects/gfe2368/gfe2368-usb/isoc-test/isoc_io_sample.c:151

	uart0_putstring("\n***Starting gfe color led test***\n\n");
     124:	e59f0044 	ldr	r0, [pc, #68]	; 170 <IRQ_STACK_SIZE+0x70>
     128:	eb00038b 	bl	f5c <uart0_putstring>
/home/kwilson/Projects/gfe2368/gfe2368-usb/isoc-test/isoc_io_sample.c:152
	uart0_putstring("\n***Board is defined as: ");
     12c:	e59f0040 	ldr	r0, [pc, #64]	; 174 <IRQ_STACK_SIZE+0x74>
     130:	eb000389 	bl	f5c <uart0_putstring>
/home/kwilson/Projects/gfe2368/gfe2368-usb/isoc-test/isoc_io_sample.c:154

	uart0_putstring( infoquery_gfe_boardtag() );
     134:	eb00002e 	bl	1f4 <infoquery_gfe_boardtag>
     138:	eb000387 	bl	f5c <uart0_putstring>
/home/kwilson/Projects/gfe2368/gfe2368-usb/isoc-test/isoc_io_sample.c:156

	uart0_putstring(" ***\n");
     13c:	e59f0034 	ldr	r0, [pc, #52]	; 178 <IRQ_STACK_SIZE+0x78>
     140:	eb000385 	bl	f5c <uart0_putstring>
/home/kwilson/Projects/gfe2368/gfe2368-usb/isoc-test/isoc_io_sample.c:158

	init_color_led();
     144:	eb000032 	bl	214 <init_color_led>
/home/kwilson/Projects/gfe2368/gfe2368-usb/isoc-test/isoc_io_sample.c:160

	RED_LED_OFF;
     148:	e3e03103 	mvn	r3, #-1073741824	; 0xc0000000
     14c:	e2433a03 	sub	r3, r3, #12288	; 0x3000
     150:	e3a02702 	mov	r2, #524288	; 0x80000
     154:	e5032fc3 	str	r2, [r3, #-4035]	; 0xfc3
/home/kwilson/Projects/gfe2368/gfe2368-usb/isoc-test/isoc_io_sample.c:161
	BLUE_LED_OFF;
     158:	e3a02501 	mov	r2, #4194304	; 0x400000
     15c:	e5032fc3 	str	r2, [r3, #-4035]	; 0xfc3
/home/kwilson/Projects/gfe2368/gfe2368-usb/isoc-test/isoc_io_sample.c:162
	GREEN_LED_OFF;
     160:	e3a02402 	mov	r2, #33554432	; 0x2000000
/home/kwilson/Projects/gfe2368/gfe2368-usb/isoc-test/isoc_io_sample.c:215
//			x = 0;
//		}
//	}

	return 0;
}
     164:	e3a00000 	mov	r0, #0
/home/kwilson/Projects/gfe2368/gfe2368-usb/isoc-test/isoc_io_sample.c:162

	init_color_led();

	RED_LED_OFF;
	BLUE_LED_OFF;
	GREEN_LED_OFF;
     168:	e5032fc3 	str	r2, [r3, #-4035]	; 0xfc3
/home/kwilson/Projects/gfe2368/gfe2368-usb/isoc-test/isoc_io_sample.c:215
//			x = 0;
//		}
//	}

	return 0;
}
     16c:	e49df004 	pop	{pc}		; (ldr pc, [sp], #4)
     170:	00001b54 	.word	0x00001b54
     174:	00001b7c 	.word	0x00001b7c
     178:	00001d1c 	.word	0x00001d1c

0000017c <IRQ_Routine>:
IRQ_Routine():
/home/kwilson/Projects/gfe2368/gfe2368-usb/isoc-test/hwsys.c:12

/*
 *  Stubs for various interrupts 
 */

void IRQ_Routine (void) {
     17c:	eafffffe 	b	17c <IRQ_Routine>

00000180 <FIQ_Routine>:
FIQ_Routine():
/home/kwilson/Projects/gfe2368/gfe2368-usb/isoc-test/hwsys.c:16
	while (1) ;	
}

void FIQ_Routine (void)  {
     180:	eafffffe 	b	180 <FIQ_Routine>

00000184 <SWI_Routine>:
SWI_Routine():
/home/kwilson/Projects/gfe2368/gfe2368-usb/isoc-test/hwsys.c:20
	while (1) ;	
}

void SWI_Routine (void)  {
     184:	eafffffe 	b	184 <SWI_Routine>

00000188 <UNDEF_Routine>:
UNDEF_Routine():
/home/kwilson/Projects/gfe2368/gfe2368-usb/isoc-test/hwsys.c:24
	while (1) ;	
}

void UNDEF_Routine (void) {
     188:	eafffffe 	b	188 <UNDEF_Routine>

0000018c <info_init>:
info_init():
/home/kwilson/Projects/gfe2368/gfe2368-info/gfe2368-info.c:18

#include "gfe2368-info.h"

gfe2368_info_s __attribute__ ((unused)) brd ;

void info_init() {
     18c:	e92d4800 	push	{fp, lr}
     190:	e28db004 	add	fp, sp, #4
     194:	e24dd004 	sub	sp, sp, #4
/home/kwilson/Projects/gfe2368/gfe2368-info/gfe2368-info.c:21

#ifdef BOARD_ONE
    printf_lpc(UART0, "board_one\n");
     198:	e3a00000 	mov	r0, #0
     19c:	e59f1044 	ldr	r1, [pc, #68]	; 1e8 <info_init+0x5c>
     1a0:	eb00058c 	bl	17d8 <printf_lpc>
/home/kwilson/Projects/gfe2368/gfe2368-info/gfe2368-info.c:22
    char *comment = "board one";
     1a4:	e59f3040 	ldr	r3, [pc, #64]	; 1ec <info_init+0x60>
     1a8:	e50b3008 	str	r3, [fp, #-8]
/home/kwilson/Projects/gfe2368/gfe2368-info/gfe2368-info.c:23
    strncpy(brd.boardtag, comment, strlen(comment));
     1ac:	e51b0008 	ldr	r0, [fp, #-8]
     1b0:	eb000594 	bl	1808 <strlen>
     1b4:	e1a03000 	mov	r3, r0
     1b8:	e59f0030 	ldr	r0, [pc, #48]	; 1f0 <info_init+0x64>
     1bc:	e51b1008 	ldr	r1, [fp, #-8]
     1c0:	e1a02003 	mov	r2, r3
     1c4:	eb0005a7 	bl	1868 <strncpy>
/home/kwilson/Projects/gfe2368/gfe2368-info/gfe2368-info.c:24
    brd.boardtag[strlen(comment)] = '\0';
     1c8:	e51b0008 	ldr	r0, [fp, #-8]
     1cc:	eb00058d 	bl	1808 <strlen>
     1d0:	e1a03000 	mov	r3, r0
     1d4:	e59f2014 	ldr	r2, [pc, #20]	; 1f0 <info_init+0x64>
     1d8:	e3a01000 	mov	r1, #0
     1dc:	e7c21003 	strb	r1, [r2, r3]
/home/kwilson/Projects/gfe2368/gfe2368-info/gfe2368-info.c:67
    char *comment = "unknown";
    strncpy(brd.boardtag, comment, strlen(comment));
    brd.boardtag[strlen(comment)] = '\0';
#endif

}
     1e0:	e24bd004 	sub	sp, fp, #4
     1e4:	e8bd8800 	pop	{fp, pc}
     1e8:	00001b3c 	.word	0x00001b3c
     1ec:	00001b48 	.word	0x00001b48
     1f0:	40000404 	.word	0x40000404

000001f4 <infoquery_gfe_boardtag>:
infoquery_gfe_boardtag():
/home/kwilson/Projects/gfe2368/gfe2368-info/gfe2368-info.c:73

/*
 * infoquery_board
 * must call info_init first
 */
const char*    infoquery_gfe_boardtag(void) {
     1f4:	e52db004 	push	{fp}		; (str fp, [sp, #-4]!)
     1f8:	e28db000 	add	fp, sp, #0
/home/kwilson/Projects/gfe2368/gfe2368-info/gfe2368-info.c:75
//    printf_lpc(UART0,"Return of boardtag: %s\n", brd.boardtag);
    return((const char*) brd.boardtag);
     1fc:	e59f300c 	ldr	r3, [pc, #12]	; 210 <infoquery_gfe_boardtag+0x1c>
/home/kwilson/Projects/gfe2368/gfe2368-info/gfe2368-info.c:76
}
     200:	e1a00003 	mov	r0, r3
     204:	e28bd000 	add	sp, fp, #0
     208:	e8bd0800 	pop	{fp}
     20c:	e12fff1e 	bx	lr
     210:	40000404 	.word	0x40000404

00000214 <init_color_led>:
init_color_led():
/home/kwilson/Projects/gfe2368/gfe2368-util/gfe2368-util.c:23

/*
 * init_stat_led
 * call this to initialize PINSEL register and FIO
 */
void init_color_led() {
     214:	e52db004 	push	{fp}		; (str fp, [sp, #-4]!)
     218:	e28db000 	add	fp, sp, #0
/home/kwilson/Projects/gfe2368/gfe2368-util/gfe2368-util.c:24
    FIO_ENABLE;
     21c:	e3a0320e 	mov	r3, #-536870912	; 0xe0000000
     220:	e283397f 	add	r3, r3, #2080768	; 0x1fc000
     224:	e2833e1a 	add	r3, r3, #416	; 0x1a0
     228:	e3a0220e 	mov	r2, #-536870912	; 0xe0000000
     22c:	e282297f 	add	r2, r2, #2080768	; 0x1fc000
     230:	e2822e1a 	add	r2, r2, #416	; 0x1a0
     234:	e5922000 	ldr	r2, [r2]
     238:	e3822001 	orr	r2, r2, #1
     23c:	e5832000 	str	r2, [r3]
/home/kwilson/Projects/gfe2368/gfe2368-util/gfe2368-util.c:26

    RED_LED_ENABLE;
     240:	e3e03dff 	mvn	r3, #16320	; 0x3fc0
     244:	e243317f 	sub	r3, r3, #-1073741793	; 0xc000001f
     248:	e3e02dff 	mvn	r2, #16320	; 0x3fc0
     24c:	e242217f 	sub	r2, r2, #-1073741793	; 0xc000001f
     250:	e5922000 	ldr	r2, [r2]
     254:	e3822702 	orr	r2, r2, #524288	; 0x80000
     258:	e5832000 	str	r2, [r3]
/home/kwilson/Projects/gfe2368/gfe2368-util/gfe2368-util.c:27
    GREEN_LED_ENABLE;
     25c:	e3e03dff 	mvn	r3, #16320	; 0x3fc0
     260:	e243317f 	sub	r3, r3, #-1073741793	; 0xc000001f
     264:	e3e02dff 	mvn	r2, #16320	; 0x3fc0
     268:	e242217f 	sub	r2, r2, #-1073741793	; 0xc000001f
     26c:	e5922000 	ldr	r2, [r2]
     270:	e3822402 	orr	r2, r2, #33554432	; 0x2000000
     274:	e5832000 	str	r2, [r3]
/home/kwilson/Projects/gfe2368/gfe2368-util/gfe2368-util.c:28
    BLUE_LED_ENABLE;
     278:	e3e03dff 	mvn	r3, #16320	; 0x3fc0
     27c:	e243317f 	sub	r3, r3, #-1073741793	; 0xc000001f
     280:	e3e02dff 	mvn	r2, #16320	; 0x3fc0
     284:	e242217f 	sub	r2, r2, #-1073741793	; 0xc000001f
     288:	e5922000 	ldr	r2, [r2]
     28c:	e3822501 	orr	r2, r2, #4194304	; 0x400000
     290:	e5832000 	str	r2, [r3]
/home/kwilson/Projects/gfe2368/gfe2368-util/gfe2368-util.c:30

    RED_LED_OFF;
     294:	e3e03dff 	mvn	r3, #16320	; 0x3fc0
     298:	e243310f 	sub	r3, r3, #-1073741821	; 0xc0000003
     29c:	e3a02702 	mov	r2, #524288	; 0x80000
     2a0:	e5832000 	str	r2, [r3]
/home/kwilson/Projects/gfe2368/gfe2368-util/gfe2368-util.c:31
    GREEN_LED_OFF;
     2a4:	e3e03dff 	mvn	r3, #16320	; 0x3fc0
     2a8:	e243310f 	sub	r3, r3, #-1073741821	; 0xc0000003
     2ac:	e3a02402 	mov	r2, #33554432	; 0x2000000
     2b0:	e5832000 	str	r2, [r3]
/home/kwilson/Projects/gfe2368/gfe2368-util/gfe2368-util.c:32
    BLUE_LED_OFF;
     2b4:	e3e03dff 	mvn	r3, #16320	; 0x3fc0
     2b8:	e243310f 	sub	r3, r3, #-1073741821	; 0xc0000003
     2bc:	e3a02501 	mov	r2, #4194304	; 0x400000
     2c0:	e5832000 	str	r2, [r3]
/home/kwilson/Projects/gfe2368/gfe2368-util/gfe2368-util.c:33
}
     2c4:	e28bd000 	add	sp, fp, #0
     2c8:	e8bd0800 	pop	{fp}
     2cc:	e12fff1e 	bx	lr

000002d0 <all_led_off>:
all_led_off():
/home/kwilson/Projects/gfe2368/gfe2368-util/gfe2368-util.c:38

/*
 * all_led_off
 */
void all_led_off() {
     2d0:	e52db004 	push	{fp}		; (str fp, [sp, #-4]!)
     2d4:	e28db000 	add	fp, sp, #0
/home/kwilson/Projects/gfe2368/gfe2368-util/gfe2368-util.c:39
    RED_LED_OFF;
     2d8:	e3e03dff 	mvn	r3, #16320	; 0x3fc0
     2dc:	e243310f 	sub	r3, r3, #-1073741821	; 0xc0000003
     2e0:	e3a02702 	mov	r2, #524288	; 0x80000
     2e4:	e5832000 	str	r2, [r3]
/home/kwilson/Projects/gfe2368/gfe2368-util/gfe2368-util.c:40
    GREEN_LED_OFF;
     2e8:	e3e03dff 	mvn	r3, #16320	; 0x3fc0
     2ec:	e243310f 	sub	r3, r3, #-1073741821	; 0xc0000003
     2f0:	e3a02402 	mov	r2, #33554432	; 0x2000000
     2f4:	e5832000 	str	r2, [r3]
/home/kwilson/Projects/gfe2368/gfe2368-util/gfe2368-util.c:41
    BLUE_LED_OFF;
     2f8:	e3e03dff 	mvn	r3, #16320	; 0x3fc0
     2fc:	e243310f 	sub	r3, r3, #-1073741821	; 0xc0000003
     300:	e3a02501 	mov	r2, #4194304	; 0x400000
     304:	e5832000 	str	r2, [r3]
/home/kwilson/Projects/gfe2368/gfe2368-util/gfe2368-util.c:42
}
     308:	e28bd000 	add	sp, fp, #0
     30c:	e8bd0800 	pop	{fp}
     310:	e12fff1e 	bx	lr

00000314 <cycle_led>:
cycle_led():
/home/kwilson/Projects/gfe2368/gfe2368-util/gfe2368-util.c:48


/*
 * cycle_led
 */
void cycle_led() {
     314:	e92d4800 	push	{fp, lr}
     318:	e28db004 	add	fp, sp, #4
/home/kwilson/Projects/gfe2368/gfe2368-util/gfe2368-util.c:50

    RED_LED_ON;
     31c:	e3e03dff 	mvn	r3, #16320	; 0x3fc0
     320:	e243311f 	sub	r3, r3, #-1073741817	; 0xc0000007
     324:	e3a02702 	mov	r2, #524288	; 0x80000
     328:	e5832000 	str	r2, [r3]
/home/kwilson/Projects/gfe2368/gfe2368-util/gfe2368-util.c:51
    util_wait_msecs(1000) ;
     32c:	e3a00ffa 	mov	r0, #1000	; 0x3e8
     330:	eb000495 	bl	158c <util_wait_msecs>
/home/kwilson/Projects/gfe2368/gfe2368-util/gfe2368-util.c:52
    RED_LED_OFF;
     334:	e3e03dff 	mvn	r3, #16320	; 0x3fc0
     338:	e243310f 	sub	r3, r3, #-1073741821	; 0xc0000003
     33c:	e3a02702 	mov	r2, #524288	; 0x80000
     340:	e5832000 	str	r2, [r3]
/home/kwilson/Projects/gfe2368/gfe2368-util/gfe2368-util.c:54

    BLUE_LED_ON;
     344:	e3e03dff 	mvn	r3, #16320	; 0x3fc0
     348:	e243311f 	sub	r3, r3, #-1073741817	; 0xc0000007
     34c:	e3a02501 	mov	r2, #4194304	; 0x400000
     350:	e5832000 	str	r2, [r3]
/home/kwilson/Projects/gfe2368/gfe2368-util/gfe2368-util.c:55
    util_wait_msecs(1000) ;
     354:	e3a00ffa 	mov	r0, #1000	; 0x3e8
     358:	eb00048b 	bl	158c <util_wait_msecs>
/home/kwilson/Projects/gfe2368/gfe2368-util/gfe2368-util.c:56
    BLUE_LED_OFF;
     35c:	e3e03dff 	mvn	r3, #16320	; 0x3fc0
     360:	e243310f 	sub	r3, r3, #-1073741821	; 0xc0000003
     364:	e3a02501 	mov	r2, #4194304	; 0x400000
     368:	e5832000 	str	r2, [r3]
/home/kwilson/Projects/gfe2368/gfe2368-util/gfe2368-util.c:58

    GREEN_LED_ON;
     36c:	e3e03dff 	mvn	r3, #16320	; 0x3fc0
     370:	e243311f 	sub	r3, r3, #-1073741817	; 0xc0000007
     374:	e3a02402 	mov	r2, #33554432	; 0x2000000
     378:	e5832000 	str	r2, [r3]
/home/kwilson/Projects/gfe2368/gfe2368-util/gfe2368-util.c:59
    util_wait_msecs(1000) ;
     37c:	e3a00ffa 	mov	r0, #1000	; 0x3e8
     380:	eb000481 	bl	158c <util_wait_msecs>
/home/kwilson/Projects/gfe2368/gfe2368-util/gfe2368-util.c:60
    GREEN_LED_OFF;
     384:	e3e03dff 	mvn	r3, #16320	; 0x3fc0
     388:	e243310f 	sub	r3, r3, #-1073741821	; 0xc0000003
     38c:	e3a02402 	mov	r2, #33554432	; 0x2000000
     390:	e5832000 	str	r2, [r3]
/home/kwilson/Projects/gfe2368/gfe2368-util/gfe2368-util.c:62

}
     394:	e8bd8800 	pop	{fp, pc}

00000398 <color_led_flash>:
color_led_flash():
/home/kwilson/Projects/gfe2368/gfe2368-util/gfe2368-util.c:69
/*
 * color_led_flash
 */
void color_led_flash(uint32_t cycles, 
        ledcolor_type   led, 
        flashspeed_type speed ) {
     398:	e92d4800 	push	{fp, lr}
     39c:	e28db004 	add	fp, sp, #4
     3a0:	e24dd018 	sub	sp, sp, #24
     3a4:	e50b0014 	str	r0, [fp, #-20]
     3a8:	e50b1018 	str	r1, [fp, #-24]
     3ac:	e50b201c 	str	r2, [fp, #-28]
/home/kwilson/Projects/gfe2368/gfe2368-util/gfe2368-util.c:71

    int x              = 0;
     3b0:	e3a03000 	mov	r3, #0
     3b4:	e50b3008 	str	r3, [fp, #-8]
/home/kwilson/Projects/gfe2368/gfe2368-util/gfe2368-util.c:72
    int interval       = 100000;
     3b8:	e3a03b61 	mov	r3, #99328	; 0x18400
     3bc:	e2833e2a 	add	r3, r3, #672	; 0x2a0
     3c0:	e50b300c 	str	r3, [fp, #-12]
/home/kwilson/Projects/gfe2368/gfe2368-util/gfe2368-util.c:75

    Freq cclk;
    cclk  =  pllquery_cclk_mhz();
     3c4:	eb0000ff 	bl	7c8 <pllquery_cclk_mhz>
     3c8:	e50b0010 	str	r0, [fp, #-16]
/home/kwilson/Projects/gfe2368/gfe2368-util/gfe2368-util.c:77

    switch(cclk) {
     3cc:	e51b2010 	ldr	r2, [fp, #-16]
     3d0:	e3a037b7 	mov	r3, #47972352	; 0x2dc0000
     3d4:	e2833b1b 	add	r3, r3, #27648	; 0x6c00
     3d8:	e1520003 	cmp	r2, r3
     3dc:	0a000014 	beq	434 <color_led_flash+0x9c>
     3e0:	e3a037b7 	mov	r3, #47972352	; 0x2dc0000
     3e4:	e2833b1b 	add	r3, r3, #27648	; 0x6c00
     3e8:	e1520003 	cmp	r2, r3
     3ec:	8a000002 	bhi	3fc <color_led_flash+0x64>
     3f0:	e3520000 	cmp	r2, #0
     3f4:	0a00000a 	beq	424 <color_led_flash+0x8c>
     3f8:	ea00004b 	b	52c <color_led_flash+0x194>
     3fc:	e3a037e5 	mov	r3, #60030976	; 0x3940000
     400:	e2433c79 	sub	r3, r3, #30976	; 0x7900
     404:	e1520003 	cmp	r2, r3
     408:	0a00001d 	beq	484 <color_led_flash+0xec>
     40c:	e3a03511 	mov	r3, #71303168	; 0x4400000
     410:	e2833aaa 	add	r3, r3, #696320	; 0xaa000
     414:	e2833c02 	add	r3, r3, #512	; 0x200
     418:	e1520003 	cmp	r2, r3
     41c:	0a00002d 	beq	4d8 <color_led_flash+0x140>
     420:	ea000041 	b	52c <color_led_flash+0x194>
/home/kwilson/Projects/gfe2368/gfe2368-util/gfe2368-util.c:79
        case ZERO:
            interval = 100000;
     424:	e3a03b61 	mov	r3, #99328	; 0x18400
     428:	e2833e2a 	add	r3, r3, #672	; 0x2a0
     42c:	e50b300c 	str	r3, [fp, #-12]
/home/kwilson/Projects/gfe2368/gfe2368-util/gfe2368-util.c:80
            break;
     430:	ea000041 	b	53c <color_led_flash+0x1a4>
/home/kwilson/Projects/gfe2368/gfe2368-util/gfe2368-util.c:82
        case FOURTY_EIGHT_MHZ:
            switch(speed) {
     434:	e51b301c 	ldr	r3, [fp, #-28]
     438:	e3530001 	cmp	r3, #1
     43c:	0a000008 	beq	464 <color_led_flash+0xcc>
     440:	e3530001 	cmp	r3, #1
     444:	3a000002 	bcc	454 <color_led_flash+0xbc>
     448:	e3530002 	cmp	r3, #2
     44c:	0a000008 	beq	474 <color_led_flash+0xdc>
/home/kwilson/Projects/gfe2368/gfe2368-util/gfe2368-util.c:93
                    break;
                case FLASH_FAST:
                    interval = 0.0008 * 48000000;
                    break;
                default:
                    break;
     450:	ea00000a 	b	480 <color_led_flash+0xe8>
/home/kwilson/Projects/gfe2368/gfe2368-util/gfe2368-util.c:84
            interval = 100000;
            break;
        case FOURTY_EIGHT_MHZ:
            switch(speed) {
                case FLASH_SLOW:
                    interval = 0.1 * 48000000;
     454:	e3a03849 	mov	r3, #4784128	; 0x490000
     458:	e2833c3e 	add	r3, r3, #15872	; 0x3e00
     45c:	e50b300c 	str	r3, [fp, #-12]
/home/kwilson/Projects/gfe2368/gfe2368-util/gfe2368-util.c:85
                    break;
     460:	ea000006 	b	480 <color_led_flash+0xe8>
/home/kwilson/Projects/gfe2368/gfe2368-util/gfe2368-util.c:87
                case FLASH_NORMAL:
                    interval = 0.008 * 48000000;
     464:	e3a03a5d 	mov	r3, #380928	; 0x5d000
     468:	e2833b03 	add	r3, r3, #3072	; 0xc00
     46c:	e50b300c 	str	r3, [fp, #-12]
/home/kwilson/Projects/gfe2368/gfe2368-util/gfe2368-util.c:88
                    break;
     470:	ea000002 	b	480 <color_led_flash+0xe8>
/home/kwilson/Projects/gfe2368/gfe2368-util/gfe2368-util.c:90
                case FLASH_FAST:
                    interval = 0.0008 * 48000000;
     474:	e3a03c96 	mov	r3, #38400	; 0x9600
     478:	e50b300c 	str	r3, [fp, #-12]
/home/kwilson/Projects/gfe2368/gfe2368-util/gfe2368-util.c:91
                    break;
     47c:	e1a00000 	nop			; (mov r0, r0)
/home/kwilson/Projects/gfe2368/gfe2368-util/gfe2368-util.c:95
                default:
                    break;
            }
            break;
     480:	ea00002d 	b	53c <color_led_flash+0x1a4>
/home/kwilson/Projects/gfe2368/gfe2368-util/gfe2368-util.c:97
        case SIXTY_MHZ:
            switch(speed) {
     484:	e51b301c 	ldr	r3, [fp, #-28]
     488:	e3530001 	cmp	r3, #1
     48c:	0a000008 	beq	4b4 <color_led_flash+0x11c>
     490:	e3530001 	cmp	r3, #1
     494:	3a000002 	bcc	4a4 <color_led_flash+0x10c>
     498:	e3530002 	cmp	r3, #2
     49c:	0a000008 	beq	4c4 <color_led_flash+0x12c>
/home/kwilson/Projects/gfe2368/gfe2368-util/gfe2368-util.c:108
                    break;
                case FLASH_FAST:
                    interval = 0.0008 * 60000000;
                    break;
                default:
                    break;
     4a0:	ea00000b 	b	4d4 <color_led_flash+0x13c>
/home/kwilson/Projects/gfe2368/gfe2368-util/gfe2368-util.c:99
            }
            break;
        case SIXTY_MHZ:
            switch(speed) {
                case FLASH_SLOW:
                    interval = 0.01 * 60000000;
     4a4:	e3a03a92 	mov	r3, #598016	; 0x92000
     4a8:	e2833d1f 	add	r3, r3, #1984	; 0x7c0
     4ac:	e50b300c 	str	r3, [fp, #-12]
/home/kwilson/Projects/gfe2368/gfe2368-util/gfe2368-util.c:100
                    break;
     4b0:	ea000007 	b	4d4 <color_led_flash+0x13c>
/home/kwilson/Projects/gfe2368/gfe2368-util/gfe2368-util.c:102
                case FLASH_NORMAL:
                    interval = 0.003 * 60000000;
     4b4:	e3a03baf 	mov	r3, #179200	; 0x2bc00
     4b8:	e2833e32 	add	r3, r3, #800	; 0x320
     4bc:	e50b300c 	str	r3, [fp, #-12]
/home/kwilson/Projects/gfe2368/gfe2368-util/gfe2368-util.c:103
                    break;
     4c0:	ea000003 	b	4d4 <color_led_flash+0x13c>
/home/kwilson/Projects/gfe2368/gfe2368-util/gfe2368-util.c:105
                case FLASH_FAST:
                    interval = 0.0008 * 60000000;
     4c4:	e3a03cbb 	mov	r3, #47872	; 0xbb00
     4c8:	e2833080 	add	r3, r3, #128	; 0x80
     4cc:	e50b300c 	str	r3, [fp, #-12]
/home/kwilson/Projects/gfe2368/gfe2368-util/gfe2368-util.c:106
                    break;
     4d0:	e1a00000 	nop			; (mov r0, r0)
/home/kwilson/Projects/gfe2368/gfe2368-util/gfe2368-util.c:110
                default:
                    break;
            }
            break;
     4d4:	ea000018 	b	53c <color_led_flash+0x1a4>
/home/kwilson/Projects/gfe2368/gfe2368-util/gfe2368-util.c:112
        case SEVENTY_TWO_MHZ:
            switch(speed) {
     4d8:	e51b301c 	ldr	r3, [fp, #-28]
     4dc:	e3530001 	cmp	r3, #1
     4e0:	0a000008 	beq	508 <color_led_flash+0x170>
     4e4:	e3530001 	cmp	r3, #1
     4e8:	3a000002 	bcc	4f8 <color_led_flash+0x160>
     4ec:	e3530002 	cmp	r3, #2
     4f0:	0a000008 	beq	518 <color_led_flash+0x180>
/home/kwilson/Projects/gfe2368/gfe2368-util/gfe2368-util.c:123
                    break;
                case FLASH_FAST:
                    interval = 0.0005 * 72000000;
                    break;
                default:
                    break;
     4f4:	ea00000b 	b	528 <color_led_flash+0x190>
/home/kwilson/Projects/gfe2368/gfe2368-util/gfe2368-util.c:114
            }
            break;
        case SEVENTY_TWO_MHZ:
            switch(speed) {
                case FLASH_SLOW:
                    interval = 0.01 * 72000000;
     4f8:	e3a03aaf 	mov	r3, #716800	; 0xaf000
     4fc:	e2833d32 	add	r3, r3, #3200	; 0xc80
     500:	e50b300c 	str	r3, [fp, #-12]
/home/kwilson/Projects/gfe2368/gfe2368-util/gfe2368-util.c:115
                    break;
     504:	ea000007 	b	528 <color_led_flash+0x190>
/home/kwilson/Projects/gfe2368/gfe2368-util/gfe2368-util.c:117
                case FLASH_NORMAL:
                    interval = 0.003 * 72000000;
     508:	e3a03bd2 	mov	r3, #215040	; 0x34800
     50c:	e2833d0f 	add	r3, r3, #960	; 0x3c0
     510:	e50b300c 	str	r3, [fp, #-12]
/home/kwilson/Projects/gfe2368/gfe2368-util/gfe2368-util.c:118
                    break;
     514:	ea000003 	b	528 <color_led_flash+0x190>
/home/kwilson/Projects/gfe2368/gfe2368-util/gfe2368-util.c:120
                case FLASH_FAST:
                    interval = 0.0005 * 72000000;
     518:	e3a03b23 	mov	r3, #35840	; 0x8c00
     51c:	e28330a0 	add	r3, r3, #160	; 0xa0
     520:	e50b300c 	str	r3, [fp, #-12]
/home/kwilson/Projects/gfe2368/gfe2368-util/gfe2368-util.c:121
                    break;
     524:	e1a00000 	nop			; (mov r0, r0)
/home/kwilson/Projects/gfe2368/gfe2368-util/gfe2368-util.c:125
                default:
                    break;
            }
            break;
     528:	ea000003 	b	53c <color_led_flash+0x1a4>
/home/kwilson/Projects/gfe2368/gfe2368-util/gfe2368-util.c:127
        default:
            interval = 100000;
     52c:	e3a03b61 	mov	r3, #99328	; 0x18400
     530:	e2833e2a 	add	r3, r3, #672	; 0x2a0
     534:	e50b300c 	str	r3, [fp, #-12]
/home/kwilson/Projects/gfe2368/gfe2368-util/gfe2368-util.c:128
            break;
     538:	e1a00000 	nop			; (mov r0, r0)
/home/kwilson/Projects/gfe2368/gfe2368-util/gfe2368-util.c:131
    }

    cycles++;
     53c:	e51b3014 	ldr	r3, [fp, #-20]
     540:	e2833001 	add	r3, r3, #1
     544:	e50b3014 	str	r3, [fp, #-20]
/home/kwilson/Projects/gfe2368/gfe2368-util/gfe2368-util.c:132
    if(cycles > 0) {
     548:	e51b3014 	ldr	r3, [fp, #-20]
     54c:	e3530000 	cmp	r3, #0
     550:	0a000045 	beq	66c <color_led_flash+0x2d4>
     554:	ea000000 	b	55c <color_led_flash+0x1c4>
/home/kwilson/Projects/gfe2368/gfe2368-util/gfe2368-util.c:168
                        break;
                }
                x = 0;
            }
            if(cycles==0) break;
        }
     558:	e1a00000 	nop			; (mov r0, r0)
/home/kwilson/Projects/gfe2368/gfe2368-util/gfe2368-util.c:134
    }

    cycles++;
    if(cycles > 0) {
        for(;;) {
            x++;
     55c:	e51b3008 	ldr	r3, [fp, #-8]
     560:	e2833001 	add	r3, r3, #1
     564:	e50b3008 	str	r3, [fp, #-8]
/home/kwilson/Projects/gfe2368/gfe2368-util/gfe2368-util.c:135
            if (x == interval) {
     568:	e51b2008 	ldr	r2, [fp, #-8]
     56c:	e51b300c 	ldr	r3, [fp, #-12]
     570:	e1520003 	cmp	r2, r3
     574:	1a00001a 	bne	5e4 <color_led_flash+0x24c>
/home/kwilson/Projects/gfe2368/gfe2368-util/gfe2368-util.c:137
                // uart0_putstring(".\n");
                --cycles;
     578:	e51b3014 	ldr	r3, [fp, #-20]
     57c:	e2433001 	sub	r3, r3, #1
     580:	e50b3014 	str	r3, [fp, #-20]
/home/kwilson/Projects/gfe2368/gfe2368-util/gfe2368-util.c:138
                switch(led) {
     584:	e51b3018 	ldr	r3, [fp, #-24]
     588:	e3530001 	cmp	r3, #1
     58c:	0a000009 	beq	5b8 <color_led_flash+0x220>
     590:	e3530001 	cmp	r3, #1
     594:	3a000002 	bcc	5a4 <color_led_flash+0x20c>
     598:	e3530002 	cmp	r3, #2
     59c:	0a00000a 	beq	5cc <color_led_flash+0x234>
/home/kwilson/Projects/gfe2368/gfe2368-util/gfe2368-util.c:149
                        break;
                    case GREEN_LED:
                        GREEN_LED_ON;
                        break;
                    default:
                        break;
     5a0:	ea00002d 	b	65c <color_led_flash+0x2c4>
/home/kwilson/Projects/gfe2368/gfe2368-util/gfe2368-util.c:140
            if (x == interval) {
                // uart0_putstring(".\n");
                --cycles;
                switch(led) {
                    case RED_LED:
                        RED_LED_ON;
     5a4:	e3e03dff 	mvn	r3, #16320	; 0x3fc0
     5a8:	e243311f 	sub	r3, r3, #-1073741817	; 0xc0000007
     5ac:	e3a02702 	mov	r2, #524288	; 0x80000
     5b0:	e5832000 	str	r2, [r3]
/home/kwilson/Projects/gfe2368/gfe2368-util/gfe2368-util.c:141
                        break;
     5b4:	ea000028 	b	65c <color_led_flash+0x2c4>
/home/kwilson/Projects/gfe2368/gfe2368-util/gfe2368-util.c:143
                    case BLUE_LED:
                        BLUE_LED_ON;
     5b8:	e3e03dff 	mvn	r3, #16320	; 0x3fc0
     5bc:	e243311f 	sub	r3, r3, #-1073741817	; 0xc0000007
     5c0:	e3a02501 	mov	r2, #4194304	; 0x400000
     5c4:	e5832000 	str	r2, [r3]
/home/kwilson/Projects/gfe2368/gfe2368-util/gfe2368-util.c:144
                        break;
     5c8:	ea000023 	b	65c <color_led_flash+0x2c4>
/home/kwilson/Projects/gfe2368/gfe2368-util/gfe2368-util.c:146
                    case GREEN_LED:
                        GREEN_LED_ON;
     5cc:	e3e03dff 	mvn	r3, #16320	; 0x3fc0
     5d0:	e243311f 	sub	r3, r3, #-1073741817	; 0xc0000007
     5d4:	e3a02402 	mov	r2, #33554432	; 0x2000000
     5d8:	e5832000 	str	r2, [r3]
/home/kwilson/Projects/gfe2368/gfe2368-util/gfe2368-util.c:147
                        break;
     5dc:	e1a00000 	nop			; (mov r0, r0)
     5e0:	ea00001d 	b	65c <color_led_flash+0x2c4>
/home/kwilson/Projects/gfe2368/gfe2368-util/gfe2368-util.c:151
                    default:
                        break;
                }
            } else if (x >= (interval * 2)) {
     5e4:	e51b300c 	ldr	r3, [fp, #-12]
     5e8:	e1a02083 	lsl	r2, r3, #1
     5ec:	e51b3008 	ldr	r3, [fp, #-8]
     5f0:	e1520003 	cmp	r2, r3
     5f4:	ca000018 	bgt	65c <color_led_flash+0x2c4>
/home/kwilson/Projects/gfe2368/gfe2368-util/gfe2368-util.c:152
                switch(led) {
     5f8:	e51b3018 	ldr	r3, [fp, #-24]
     5fc:	e3530001 	cmp	r3, #1
     600:	0a000009 	beq	62c <color_led_flash+0x294>
     604:	e3530001 	cmp	r3, #1
     608:	3a000002 	bcc	618 <color_led_flash+0x280>
     60c:	e3530002 	cmp	r3, #2
     610:	0a00000a 	beq	640 <color_led_flash+0x2a8>
/home/kwilson/Projects/gfe2368/gfe2368-util/gfe2368-util.c:163
                        break;
                    case GREEN_LED:
                        GREEN_LED_OFF;
                        break;
                    default:
                        break;
     614:	ea00000e 	b	654 <color_led_flash+0x2bc>
/home/kwilson/Projects/gfe2368/gfe2368-util/gfe2368-util.c:154
                        break;
                }
            } else if (x >= (interval * 2)) {
                switch(led) {
                    case RED_LED:
                        RED_LED_OFF;
     618:	e3e03dff 	mvn	r3, #16320	; 0x3fc0
     61c:	e243310f 	sub	r3, r3, #-1073741821	; 0xc0000003
     620:	e3a02702 	mov	r2, #524288	; 0x80000
     624:	e5832000 	str	r2, [r3]
/home/kwilson/Projects/gfe2368/gfe2368-util/gfe2368-util.c:155
                        break;
     628:	ea000009 	b	654 <color_led_flash+0x2bc>
/home/kwilson/Projects/gfe2368/gfe2368-util/gfe2368-util.c:157
                    case BLUE_LED:
                        BLUE_LED_OFF;
     62c:	e3e03dff 	mvn	r3, #16320	; 0x3fc0
     630:	e243310f 	sub	r3, r3, #-1073741821	; 0xc0000003
     634:	e3a02501 	mov	r2, #4194304	; 0x400000
     638:	e5832000 	str	r2, [r3]
/home/kwilson/Projects/gfe2368/gfe2368-util/gfe2368-util.c:158
                        break;
     63c:	ea000004 	b	654 <color_led_flash+0x2bc>
/home/kwilson/Projects/gfe2368/gfe2368-util/gfe2368-util.c:160
                    case GREEN_LED:
                        GREEN_LED_OFF;
     640:	e3e03dff 	mvn	r3, #16320	; 0x3fc0
     644:	e243310f 	sub	r3, r3, #-1073741821	; 0xc0000003
     648:	e3a02402 	mov	r2, #33554432	; 0x2000000
     64c:	e5832000 	str	r2, [r3]
/home/kwilson/Projects/gfe2368/gfe2368-util/gfe2368-util.c:161
                        break;
     650:	e1a00000 	nop			; (mov r0, r0)
/home/kwilson/Projects/gfe2368/gfe2368-util/gfe2368-util.c:165
                    default:
                        break;
                }
                x = 0;
     654:	e3a03000 	mov	r3, #0
     658:	e50b3008 	str	r3, [fp, #-8]
/home/kwilson/Projects/gfe2368/gfe2368-util/gfe2368-util.c:167
            }
            if(cycles==0) break;
     65c:	e51b3014 	ldr	r3, [fp, #-20]
     660:	e3530000 	cmp	r3, #0
     664:	1affffbb 	bne	558 <color_led_flash+0x1c0>
     668:	e1a00000 	nop			; (mov r0, r0)
/home/kwilson/Projects/gfe2368/gfe2368-util/gfe2368-util.c:170
        }
    }
    switch(led) {
     66c:	e51b3018 	ldr	r3, [fp, #-24]
     670:	e3530001 	cmp	r3, #1
     674:	0a000009 	beq	6a0 <color_led_flash+0x308>
     678:	e3530001 	cmp	r3, #1
     67c:	3a000002 	bcc	68c <color_led_flash+0x2f4>
     680:	e3530002 	cmp	r3, #2
     684:	0a00000a 	beq	6b4 <color_led_flash+0x31c>
/home/kwilson/Projects/gfe2368/gfe2368-util/gfe2368-util.c:181
            break;
        case GREEN_LED:
            GREEN_LED_OFF;
            break;
        default:
            break;
     688:	ea00000e 	b	6c8 <color_led_flash+0x330>
/home/kwilson/Projects/gfe2368/gfe2368-util/gfe2368-util.c:172
            if(cycles==0) break;
        }
    }
    switch(led) {
        case RED_LED:
            RED_LED_OFF;
     68c:	e3e03dff 	mvn	r3, #16320	; 0x3fc0
     690:	e243310f 	sub	r3, r3, #-1073741821	; 0xc0000003
     694:	e3a02702 	mov	r2, #524288	; 0x80000
     698:	e5832000 	str	r2, [r3]
/home/kwilson/Projects/gfe2368/gfe2368-util/gfe2368-util.c:173
            break;
     69c:	ea000009 	b	6c8 <color_led_flash+0x330>
/home/kwilson/Projects/gfe2368/gfe2368-util/gfe2368-util.c:175
        case BLUE_LED:
            BLUE_LED_OFF;
     6a0:	e3e03dff 	mvn	r3, #16320	; 0x3fc0
     6a4:	e243310f 	sub	r3, r3, #-1073741821	; 0xc0000003
     6a8:	e3a02501 	mov	r2, #4194304	; 0x400000
     6ac:	e5832000 	str	r2, [r3]
/home/kwilson/Projects/gfe2368/gfe2368-util/gfe2368-util.c:176
            break;
     6b0:	ea000004 	b	6c8 <color_led_flash+0x330>
/home/kwilson/Projects/gfe2368/gfe2368-util/gfe2368-util.c:178
        case GREEN_LED:
            GREEN_LED_OFF;
     6b4:	e3e03dff 	mvn	r3, #16320	; 0x3fc0
     6b8:	e243310f 	sub	r3, r3, #-1073741821	; 0xc0000003
     6bc:	e3a02402 	mov	r2, #33554432	; 0x2000000
     6c0:	e5832000 	str	r2, [r3]
/home/kwilson/Projects/gfe2368/gfe2368-util/gfe2368-util.c:179
            break;
     6c4:	e1a00000 	nop			; (mov r0, r0)
/home/kwilson/Projects/gfe2368/gfe2368-util/gfe2368-util.c:183
        default:
            break;
    }
}
     6c8:	e24bd004 	sub	sp, fp, #4
     6cc:	e8bd8800 	pop	{fp, pc}

000006d0 <mam_disable>:
mam_disable():
/home/kwilson/Projects/gfe2368/liblpc23xx/lpc23xx-mam/lpc23xx-mam.c:43

/*
 * mam_disable
 */
void mam_disable() {
    MAMCR  = 0x0;
     6d0:	e3a0320e 	mov	r3, #-536870912	; 0xe0000000
     6d4:	e283397f 	add	r3, r3, #2080768	; 0x1fc000
     6d8:	e3a02000 	mov	r2, #0
     6dc:	e5832000 	str	r2, [r3]
/home/kwilson/Projects/gfe2368/liblpc23xx/lpc23xx-mam/lpc23xx-mam.c:44
    MAMTIM = 0x7;
     6e0:	e3a02007 	mov	r2, #7
     6e4:	e5832004 	str	r2, [r3, #4]
/home/kwilson/Projects/gfe2368/liblpc23xx/lpc23xx-mam/lpc23xx-mam.c:45
}
     6e8:	e12fff1e 	bx	lr

000006ec <mam_enable_custom>:
mam_enable_custom():
/home/kwilson/Projects/gfe2368/liblpc23xx/lpc23xx-mam/lpc23xx-mam.c:51

/*
 * mam_enable_custom
 */
void mam_enable_custom(uint8_t mamcr, uint8_t mamtim) {
    MAMCR  = (mamcr  & 0x3);
     6ec:	e3a0320e 	mov	r3, #-536870912	; 0xe0000000
     6f0:	e283397f 	add	r3, r3, #2080768	; 0x1fc000
     6f4:	e2000003 	and	r0, r0, #3
/home/kwilson/Projects/gfe2368/liblpc23xx/lpc23xx-mam/lpc23xx-mam.c:52
    MAMTIM = (mamtim & 0x7);
     6f8:	e2011007 	and	r1, r1, #7
/home/kwilson/Projects/gfe2368/liblpc23xx/lpc23xx-mam/lpc23xx-mam.c:51

/*
 * mam_enable_custom
 */
void mam_enable_custom(uint8_t mamcr, uint8_t mamtim) {
    MAMCR  = (mamcr  & 0x3);
     6fc:	e5830000 	str	r0, [r3]
/home/kwilson/Projects/gfe2368/liblpc23xx/lpc23xx-mam/lpc23xx-mam.c:52
    MAMTIM = (mamtim & 0x7);
     700:	e5831004 	str	r1, [r3, #4]
/home/kwilson/Projects/gfe2368/liblpc23xx/lpc23xx-mam/lpc23xx-mam.c:53
}
     704:	e12fff1e 	bx	lr

00000708 <mam_enable>:
mam_enable():
/home/kwilson/Projects/gfe2368/liblpc23xx/lpc23xx-mam/lpc23xx-mam.c:59

/* lpc23xx user manual-v3 p102 */
/*
 * mam_enable
 */
void mam_enable() {
     708:	e52de004 	push	{lr}		; (str lr, [sp, #-4]!)
/home/kwilson/Projects/gfe2368/liblpc23xx/lpc23xx-mam/lpc23xx-mam.c:61

    Freq current_cclk = pllquery_cclk_mhz();
     70c:	eb00002d 	bl	7c8 <pllquery_cclk_mhz>
/home/kwilson/Projects/gfe2368/liblpc23xx/lpc23xx-mam/lpc23xx-mam.c:65

    mam_disable();

    switch(current_cclk) {
     710:	e3a027b7 	mov	r2, #47972352	; 0x2dc0000
     714:	e2822b1b 	add	r2, r2, #27648	; 0x6c00
mam_disable():
/home/kwilson/Projects/gfe2368/liblpc23xx/lpc23xx-mam/lpc23xx-mam.c:43

/*
 * mam_disable
 */
void mam_disable() {
    MAMCR  = 0x0;
     718:	e3a0320e 	mov	r3, #-536870912	; 0xe0000000
     71c:	e283397f 	add	r3, r3, #2080768	; 0x1fc000
/home/kwilson/Projects/gfe2368/liblpc23xx/lpc23xx-mam/lpc23xx-mam.c:44
    MAMTIM = 0x7;
     720:	e3a01007 	mov	r1, #7
mam_enable():
/home/kwilson/Projects/gfe2368/liblpc23xx/lpc23xx-mam/lpc23xx-mam.c:65

    Freq current_cclk = pllquery_cclk_mhz();

    mam_disable();

    switch(current_cclk) {
     724:	e1500002 	cmp	r0, r2
mam_disable():
/home/kwilson/Projects/gfe2368/liblpc23xx/lpc23xx-mam/lpc23xx-mam.c:43

/*
 * mam_disable
 */
void mam_disable() {
    MAMCR  = 0x0;
     728:	e3a02000 	mov	r2, #0
     72c:	e5832000 	str	r2, [r3]
/home/kwilson/Projects/gfe2368/liblpc23xx/lpc23xx-mam/lpc23xx-mam.c:44
    MAMTIM = 0x7;
     730:	e5831004 	str	r1, [r3, #4]
mam_enable():
/home/kwilson/Projects/gfe2368/liblpc23xx/lpc23xx-mam/lpc23xx-mam.c:65

    Freq current_cclk = pllquery_cclk_mhz();

    mam_disable();

    switch(current_cclk) {
     734:	0a00001a 	beq	7a4 <mam_enable+0x9c>
     738:	9a00000f 	bls	77c <mam_enable+0x74>
     73c:	e3a027e5 	mov	r2, #60030976	; 0x3940000
     740:	e2422c79 	sub	r2, r2, #30976	; 0x7900
     744:	e1500002 	cmp	r0, r2
     748:	0a000015 	beq	7a4 <mam_enable+0x9c>
     74c:	e3a02511 	mov	r2, #71303168	; 0x4400000
     750:	e2822aaa 	add	r2, r2, #696320	; 0xaa000
     754:	e2822c02 	add	r2, r2, #512	; 0x200
     758:	e1500002 	cmp	r0, r2
     75c:	0a00000b 	beq	790 <mam_enable+0x88>
mam_disable():
/home/kwilson/Projects/gfe2368/liblpc23xx/lpc23xx-mam/lpc23xx-mam.c:43

/*
 * mam_disable
 */
void mam_disable() {
    MAMCR  = 0x0;
     760:	e3a0320e 	mov	r3, #-536870912	; 0xe0000000
     764:	e283397f 	add	r3, r3, #2080768	; 0x1fc000
     768:	e3a02000 	mov	r2, #0
     76c:	e5832000 	str	r2, [r3]
/home/kwilson/Projects/gfe2368/liblpc23xx/lpc23xx-mam/lpc23xx-mam.c:44
    MAMTIM = 0x7;
     770:	e3a02007 	mov	r2, #7
     774:	e5832004 	str	r2, [r3, #4]
     778:	e49df004 	pop	{pc}		; (ldr pc, [sp], #4)
mam_enable():
/home/kwilson/Projects/gfe2368/liblpc23xx/lpc23xx-mam/lpc23xx-mam.c:65

    Freq current_cclk = pllquery_cclk_mhz();

    mam_disable();

    switch(current_cclk) {
     77c:	e1500002 	cmp	r0, r2
mam_disable():
/home/kwilson/Projects/gfe2368/liblpc23xx/lpc23xx-mam/lpc23xx-mam.c:43

/*
 * mam_disable
 */
void mam_disable() {
    MAMCR  = 0x0;
     780:	05830000 	streq	r0, [r3]
/home/kwilson/Projects/gfe2368/liblpc23xx/lpc23xx-mam/lpc23xx-mam.c:44
    MAMTIM = 0x7;
     784:	05831004 	streq	r1, [r3, #4]
mam_enable():
/home/kwilson/Projects/gfe2368/liblpc23xx/lpc23xx-mam/lpc23xx-mam.c:65

    Freq current_cclk = pllquery_cclk_mhz();

    mam_disable();

    switch(current_cclk) {
     788:	049df004 	popeq	{pc}		; (ldreq pc, [sp], #4)
     78c:	eafffff3 	b	760 <mam_enable+0x58>
/home/kwilson/Projects/gfe2368/liblpc23xx/lpc23xx-mam/lpc23xx-mam.c:86
            MAMTIM = 0x3;
            break;

            /* more than 60Mhz 4CCLK */
        case SEVENTY_TWO_MHZ:
            MAMCR  = 0x2;
     790:	e3a02002 	mov	r2, #2
     794:	e5832000 	str	r2, [r3]
/home/kwilson/Projects/gfe2368/liblpc23xx/lpc23xx-mam/lpc23xx-mam.c:87
            MAMTIM = 0x4;
     798:	e3a02004 	mov	r2, #4
     79c:	e5832004 	str	r2, [r3, #4]
/home/kwilson/Projects/gfe2368/liblpc23xx/lpc23xx-mam/lpc23xx-mam.c:88
            break;
     7a0:	e49df004 	pop	{pc}		; (ldr pc, [sp], #4)
/home/kwilson/Projects/gfe2368/liblpc23xx/lpc23xx-mam/lpc23xx-mam.c:80
            MAMCR  = 0x2;
            MAMTIM = 0x3;
            break;

        case SIXTY_MHZ:
            MAMCR  = 0x2;
     7a4:	e3a02002 	mov	r2, #2
     7a8:	e5832000 	str	r2, [r3]
/home/kwilson/Projects/gfe2368/liblpc23xx/lpc23xx-mam/lpc23xx-mam.c:81
            MAMTIM = 0x3;
     7ac:	e3a02003 	mov	r2, #3
     7b0:	e5832004 	str	r2, [r3, #4]
/home/kwilson/Projects/gfe2368/liblpc23xx/lpc23xx-mam/lpc23xx-mam.c:82
            break;
     7b4:	e49df004 	pop	{pc}		; (ldr pc, [sp], #4)

000007b8 <pllquery_fcco_mhz>:
pllquery_fcco_mhz():
/home/kwilson/Projects/gfe2368/liblpc23xx/lpc23xx-pll/lpc23xx-pll.c:45
/*! \brief Current Controlled Oscillator Frequency Setting
 * pllquery_fcco_mhz
 * \return Current value of cco frequency
 */
Freq    pllquery_fcco_mhz(void) {
    return(pllstat.fcco_mhz);
     7b8:	e59f3004 	ldr	r3, [pc, #4]	; 7c4 <pllquery_fcco_mhz+0xc>
/home/kwilson/Projects/gfe2368/liblpc23xx/lpc23xx-pll/lpc23xx-pll.c:46
}
     7bc:	e5930004 	ldr	r0, [r3, #4]
     7c0:	e12fff1e 	bx	lr
     7c4:	40000438 	.word	0x40000438

000007c8 <pllquery_cclk_mhz>:
pllquery_cclk_mhz():
/home/kwilson/Projects/gfe2368/liblpc23xx/lpc23xx-pll/lpc23xx-pll.c:54
 * pllquery_cclk_mhz
 * \brief Main clock Frequency Setting
 * \return Freq value of main clock.
 */
Freq    pllquery_cclk_mhz(void) {
    return(pllstat.cclk_mhz);
     7c8:	e59f3004 	ldr	r3, [pc, #4]	; 7d4 <pllquery_cclk_mhz+0xc>
/home/kwilson/Projects/gfe2368/liblpc23xx/lpc23xx-pll/lpc23xx-pll.c:55
}
     7cc:	e5930000 	ldr	r0, [r3]
     7d0:	e12fff1e 	bx	lr
     7d4:	40000438 	.word	0x40000438

000007d8 <pllfeed>:
pllfeed():
/home/kwilson/Projects/gfe2368/liblpc23xx/lpc23xx-pll/lpc23xx-pll.c:65
 */
void pllfeed(void) {
    uint32_t        savedInterrupts;

    /* disable interrupts */
    savedInterrupts = VICIntEnable;
     7d8:	e3e03000 	mvn	r3, #0
/home/kwilson/Projects/gfe2368/liblpc23xx/lpc23xx-pll/lpc23xx-pll.c:68
    VICIntEnClr     = (unsigned) 0xFFFFFFFF;

    PLLFEED         = FEEDBYTE_A;
     7dc:	e3a0220e 	mov	r2, #-536870912	; 0xe0000000
/home/kwilson/Projects/gfe2368/liblpc23xx/lpc23xx-pll/lpc23xx-pll.c:65
 */
void pllfeed(void) {
    uint32_t        savedInterrupts;

    /* disable interrupts */
    savedInterrupts = VICIntEnable;
     7e0:	e5131fef 	ldr	r1, [r3, #-4079]	; 0xfef
/home/kwilson/Projects/gfe2368/liblpc23xx/lpc23xx-pll/lpc23xx-pll.c:68
    VICIntEnClr     = (unsigned) 0xFFFFFFFF;

    PLLFEED         = FEEDBYTE_A;
     7e4:	e282297f 	add	r2, r2, #2080768	; 0x1fc000
     7e8:	e3e00055 	mvn	r0, #85	; 0x55
/home/kwilson/Projects/gfe2368/liblpc23xx/lpc23xx-pll/lpc23xx-pll.c:66
void pllfeed(void) {
    uint32_t        savedInterrupts;

    /* disable interrupts */
    savedInterrupts = VICIntEnable;
    VICIntEnClr     = (unsigned) 0xFFFFFFFF;
     7ec:	e5033feb 	str	r3, [r3, #-4075]	; 0xfeb
/home/kwilson/Projects/gfe2368/liblpc23xx/lpc23xx-pll/lpc23xx-pll.c:68

    PLLFEED         = FEEDBYTE_A;
     7f0:	e5c2008c 	strb	r0, [r2, #140]	; 0x8c
/home/kwilson/Projects/gfe2368/liblpc23xx/lpc23xx-pll/lpc23xx-pll.c:69
    PLLFEED         = FEEDBYTE_B;
     7f4:	e3a00055 	mov	r0, #85	; 0x55
     7f8:	e5c2008c 	strb	r0, [r2, #140]	; 0x8c
/home/kwilson/Projects/gfe2368/liblpc23xx/lpc23xx-pll/lpc23xx-pll.c:72

    /* restore interrupts */
    VICIntEnable    = savedInterrupts;
     7fc:	e5031fef 	str	r1, [r3, #-4079]	; 0xfef
/home/kwilson/Projects/gfe2368/liblpc23xx/lpc23xx-pll/lpc23xx-pll.c:73
}
     800:	e12fff1e 	bx	lr

00000804 <pllstop>:
pllstop():
/home/kwilson/Projects/gfe2368/liblpc23xx/lpc23xx-pll/lpc23xx-pll.c:83
 */
void pllstop(void) {

    uint32_t status;

    status          = PLLSTAT;
     804:	e3a0320e 	mov	r3, #-536870912	; 0xe0000000
     808:	e283397f 	add	r3, r3, #2080768	; 0x1fc000
     80c:	e5932088 	ldr	r2, [r3, #136]	; 0x88
/home/kwilson/Projects/gfe2368/liblpc23xx/lpc23xx-pll/lpc23xx-pll.c:85

    if(PLLC != 0) {
     810:	e5932088 	ldr	r2, [r3, #136]	; 0x88
     814:	e3120402 	tst	r2, #33554432	; 0x2000000
     818:	012fff1e 	bxeq	lr
/home/kwilson/Projects/gfe2368/liblpc23xx/lpc23xx-pll/lpc23xx-pll.c:86
        CLEAR_PLLC; 
     81c:	e5d32080 	ldrb	r2, [r3, #128]	; 0x80
     820:	e20220fd 	and	r2, r2, #253	; 0xfd
     824:	e5c32080 	strb	r2, [r3, #128]	; 0x80
pllfeed():
/home/kwilson/Projects/gfe2368/liblpc23xx/lpc23xx-pll/lpc23xx-pll.c:65
 */
void pllfeed(void) {
    uint32_t        savedInterrupts;

    /* disable interrupts */
    savedInterrupts = VICIntEnable;
     828:	e3e02000 	mvn	r2, #0
     82c:	e512cfef 	ldr	ip, [r2, #-4079]	; 0xfef
/home/kwilson/Projects/gfe2368/liblpc23xx/lpc23xx-pll/lpc23xx-pll.c:68
    VICIntEnClr     = (unsigned) 0xFFFFFFFF;

    PLLFEED         = FEEDBYTE_A;
     830:	e3e00055 	mvn	r0, #85	; 0x55
/home/kwilson/Projects/gfe2368/liblpc23xx/lpc23xx-pll/lpc23xx-pll.c:69
    PLLFEED         = FEEDBYTE_B;
     834:	e3a01055 	mov	r1, #85	; 0x55
/home/kwilson/Projects/gfe2368/liblpc23xx/lpc23xx-pll/lpc23xx-pll.c:66
void pllfeed(void) {
    uint32_t        savedInterrupts;

    /* disable interrupts */
    savedInterrupts = VICIntEnable;
    VICIntEnClr     = (unsigned) 0xFFFFFFFF;
     838:	e5022feb 	str	r2, [r2, #-4075]	; 0xfeb
/home/kwilson/Projects/gfe2368/liblpc23xx/lpc23xx-pll/lpc23xx-pll.c:68

    PLLFEED         = FEEDBYTE_A;
     83c:	e5c3008c 	strb	r0, [r3, #140]	; 0x8c
/home/kwilson/Projects/gfe2368/liblpc23xx/lpc23xx-pll/lpc23xx-pll.c:69
    PLLFEED         = FEEDBYTE_B;
     840:	e5c3108c 	strb	r1, [r3, #140]	; 0x8c
/home/kwilson/Projects/gfe2368/liblpc23xx/lpc23xx-pll/lpc23xx-pll.c:72

    /* restore interrupts */
    VICIntEnable    = savedInterrupts;
     844:	e502cfef 	str	ip, [r2, #-4079]	; 0xfef
pllstop():
/home/kwilson/Projects/gfe2368/liblpc23xx/lpc23xx-pll/lpc23xx-pll.c:88
    status          = PLLSTAT;

    if(PLLC != 0) {
        CLEAR_PLLC; 
        pllfeed();
        CLEAR_PLLE; 
     848:	e5d3c080 	ldrb	ip, [r3, #128]	; 0x80
     84c:	e20cc0fe 	and	ip, ip, #254	; 0xfe
     850:	e5c3c080 	strb	ip, [r3, #128]	; 0x80
pllfeed():
/home/kwilson/Projects/gfe2368/liblpc23xx/lpc23xx-pll/lpc23xx-pll.c:65
 */
void pllfeed(void) {
    uint32_t        savedInterrupts;

    /* disable interrupts */
    savedInterrupts = VICIntEnable;
     854:	e512cfef 	ldr	ip, [r2, #-4079]	; 0xfef
/home/kwilson/Projects/gfe2368/liblpc23xx/lpc23xx-pll/lpc23xx-pll.c:66
    VICIntEnClr     = (unsigned) 0xFFFFFFFF;
     858:	e5022feb 	str	r2, [r2, #-4075]	; 0xfeb
/home/kwilson/Projects/gfe2368/liblpc23xx/lpc23xx-pll/lpc23xx-pll.c:68

    PLLFEED         = FEEDBYTE_A;
     85c:	e5c3008c 	strb	r0, [r3, #140]	; 0x8c
/home/kwilson/Projects/gfe2368/liblpc23xx/lpc23xx-pll/lpc23xx-pll.c:69
    PLLFEED         = FEEDBYTE_B;
     860:	e5c3108c 	strb	r1, [r3, #140]	; 0x8c
/home/kwilson/Projects/gfe2368/liblpc23xx/lpc23xx-pll/lpc23xx-pll.c:72

    /* restore interrupts */
    VICIntEnable    = savedInterrupts;
     864:	e502cfef 	str	ip, [r2, #-4079]	; 0xfef
     868:	e12fff1e 	bx	lr

0000086c <pllstart_seventytwomhz>:
pllstop():
/home/kwilson/Projects/gfe2368/liblpc23xx/lpc23xx-pll/lpc23xx-pll.c:83
 */
void pllstop(void) {

    uint32_t status;

    status          = PLLSTAT;
     86c:	e3a0320e 	mov	r3, #-536870912	; 0xe0000000
     870:	e283397f 	add	r3, r3, #2080768	; 0x1fc000
     874:	e5932088 	ldr	r2, [r3, #136]	; 0x88
/home/kwilson/Projects/gfe2368/liblpc23xx/lpc23xx-pll/lpc23xx-pll.c:85

    if(PLLC != 0) {
     878:	e5932088 	ldr	r2, [r3, #136]	; 0x88
pllstart_seventytwomhz():
/home/kwilson/Projects/gfe2368/liblpc23xx/lpc23xx-pll/lpc23xx-pll.c:100
 * lpc23xx rev03 p60
 * Fcco = 288Mhz, M=12, N=1, Fin = 12Mhz 
 * \brief run cclk at 72Mhz
 */
void pllstart_seventytwomhz(void) { 
    pllstat.cclk_mhz = ZERO;
     87c:	e59f0148 	ldr	r0, [pc, #328]	; 9cc <pllstart_seventytwomhz+0x160>
pllstop():
/home/kwilson/Projects/gfe2368/liblpc23xx/lpc23xx-pll/lpc23xx-pll.c:85

    uint32_t status;

    status          = PLLSTAT;

    if(PLLC != 0) {
     880:	e3120402 	tst	r2, #33554432	; 0x2000000
pllstart_seventytwomhz():
/home/kwilson/Projects/gfe2368/liblpc23xx/lpc23xx-pll/lpc23xx-pll.c:100
 * lpc23xx rev03 p60
 * Fcco = 288Mhz, M=12, N=1, Fin = 12Mhz 
 * \brief run cclk at 72Mhz
 */
void pllstart_seventytwomhz(void) { 
    pllstat.cclk_mhz = ZERO;
     884:	e3a02000 	mov	r2, #0
/home/kwilson/Projects/gfe2368/liblpc23xx/lpc23xx-pll/lpc23xx-pll.c:99
 * pllstart_seventytwomhz
 * lpc23xx rev03 p60
 * Fcco = 288Mhz, M=12, N=1, Fin = 12Mhz 
 * \brief run cclk at 72Mhz
 */
void pllstart_seventytwomhz(void) { 
     888:	e92d0030 	push	{r4, r5}
/home/kwilson/Projects/gfe2368/liblpc23xx/lpc23xx-pll/lpc23xx-pll.c:100
    pllstat.cclk_mhz = ZERO;
     88c:	e5802000 	str	r2, [r0]
pllstop():
/home/kwilson/Projects/gfe2368/liblpc23xx/lpc23xx-pll/lpc23xx-pll.c:85

    uint32_t status;

    status          = PLLSTAT;

    if(PLLC != 0) {
     890:	0a000012 	beq	8e0 <pllstart_seventytwomhz+0x74>
/home/kwilson/Projects/gfe2368/liblpc23xx/lpc23xx-pll/lpc23xx-pll.c:86
        CLEAR_PLLC; 
     894:	e5d32080 	ldrb	r2, [r3, #128]	; 0x80
     898:	e20220fd 	and	r2, r2, #253	; 0xfd
     89c:	e5c32080 	strb	r2, [r3, #128]	; 0x80
pllfeed():
/home/kwilson/Projects/gfe2368/liblpc23xx/lpc23xx-pll/lpc23xx-pll.c:65
 */
void pllfeed(void) {
    uint32_t        savedInterrupts;

    /* disable interrupts */
    savedInterrupts = VICIntEnable;
     8a0:	e3e02000 	mvn	r2, #0
     8a4:	e5124fef 	ldr	r4, [r2, #-4079]	; 0xfef
/home/kwilson/Projects/gfe2368/liblpc23xx/lpc23xx-pll/lpc23xx-pll.c:68
    VICIntEnClr     = (unsigned) 0xFFFFFFFF;

    PLLFEED         = FEEDBYTE_A;
     8a8:	e3e0c055 	mvn	ip, #85	; 0x55
/home/kwilson/Projects/gfe2368/liblpc23xx/lpc23xx-pll/lpc23xx-pll.c:69
    PLLFEED         = FEEDBYTE_B;
     8ac:	e3a01055 	mov	r1, #85	; 0x55
/home/kwilson/Projects/gfe2368/liblpc23xx/lpc23xx-pll/lpc23xx-pll.c:66
void pllfeed(void) {
    uint32_t        savedInterrupts;

    /* disable interrupts */
    savedInterrupts = VICIntEnable;
    VICIntEnClr     = (unsigned) 0xFFFFFFFF;
     8b0:	e5022feb 	str	r2, [r2, #-4075]	; 0xfeb
/home/kwilson/Projects/gfe2368/liblpc23xx/lpc23xx-pll/lpc23xx-pll.c:68

    PLLFEED         = FEEDBYTE_A;
     8b4:	e5c3c08c 	strb	ip, [r3, #140]	; 0x8c
/home/kwilson/Projects/gfe2368/liblpc23xx/lpc23xx-pll/lpc23xx-pll.c:69
    PLLFEED         = FEEDBYTE_B;
     8b8:	e5c3108c 	strb	r1, [r3, #140]	; 0x8c
/home/kwilson/Projects/gfe2368/liblpc23xx/lpc23xx-pll/lpc23xx-pll.c:72

    /* restore interrupts */
    VICIntEnable    = savedInterrupts;
     8bc:	e5024fef 	str	r4, [r2, #-4079]	; 0xfef
pllstop():
/home/kwilson/Projects/gfe2368/liblpc23xx/lpc23xx-pll/lpc23xx-pll.c:88
    status          = PLLSTAT;

    if(PLLC != 0) {
        CLEAR_PLLC; 
        pllfeed();
        CLEAR_PLLE; 
     8c0:	e5d34080 	ldrb	r4, [r3, #128]	; 0x80
     8c4:	e20440fe 	and	r4, r4, #254	; 0xfe
     8c8:	e5c34080 	strb	r4, [r3, #128]	; 0x80
pllfeed():
/home/kwilson/Projects/gfe2368/liblpc23xx/lpc23xx-pll/lpc23xx-pll.c:65
 */
void pllfeed(void) {
    uint32_t        savedInterrupts;

    /* disable interrupts */
    savedInterrupts = VICIntEnable;
     8cc:	e5124fef 	ldr	r4, [r2, #-4079]	; 0xfef
/home/kwilson/Projects/gfe2368/liblpc23xx/lpc23xx-pll/lpc23xx-pll.c:66
    VICIntEnClr     = (unsigned) 0xFFFFFFFF;
     8d0:	e5022feb 	str	r2, [r2, #-4075]	; 0xfeb
/home/kwilson/Projects/gfe2368/liblpc23xx/lpc23xx-pll/lpc23xx-pll.c:68

    PLLFEED         = FEEDBYTE_A;
     8d4:	e5c3c08c 	strb	ip, [r3, #140]	; 0x8c
/home/kwilson/Projects/gfe2368/liblpc23xx/lpc23xx-pll/lpc23xx-pll.c:69
    PLLFEED         = FEEDBYTE_B;
     8d8:	e5c3108c 	strb	r1, [r3, #140]	; 0x8c
/home/kwilson/Projects/gfe2368/liblpc23xx/lpc23xx-pll/lpc23xx-pll.c:72

    /* restore interrupts */
    VICIntEnable    = savedInterrupts;
     8dc:	e5024fef 	str	r4, [r2, #-4079]	; 0xfef
pllstart_seventytwomhz():
/home/kwilson/Projects/gfe2368/liblpc23xx/lpc23xx-pll/lpc23xx-pll.c:104
void pllstart_seventytwomhz(void) { 
    pllstat.cclk_mhz = ZERO;

    pllstop();

    mainOSC_ENABLE;
     8e0:	e3a0120e 	mov	r1, #-536870912	; 0xe0000000
     8e4:	e281197f 	add	r1, r1, #2080768	; 0x1fc000
     8e8:	e59131a0 	ldr	r3, [r1, #416]	; 0x1a0
     8ec:	e3833020 	orr	r3, r3, #32
     8f0:	e58131a0 	str	r3, [r1, #416]	; 0x1a0
/home/kwilson/Projects/gfe2368/liblpc23xx/lpc23xx-pll/lpc23xx-pll.c:105
    while (!mainOSC_READY);
     8f4:	e59121a0 	ldr	r2, [r1, #416]	; 0x1a0
     8f8:	e3a0320e 	mov	r3, #-536870912	; 0xe0000000
     8fc:	e3120040 	tst	r2, #64	; 0x40
     900:	e283397f 	add	r3, r3, #2080768	; 0x1fc000
     904:	0afffffa 	beq	8f4 <pllstart_seventytwomhz+0x88>
/home/kwilson/Projects/gfe2368/liblpc23xx/lpc23xx-pll/lpc23xx-pll.c:107

    mainOSC_SELECT;
     908:	e3a02001 	mov	r2, #1
     90c:	e583210c 	str	r2, [r3, #268]	; 0x10c
/home/kwilson/Projects/gfe2368/liblpc23xx/lpc23xx-pll/lpc23xx-pll.c:109

    FCCO_TWO_EIGHTY_EIGHT_MHZ;
     910:	e3a0200b 	mov	r2, #11
     914:	e5832084 	str	r2, [r3, #132]	; 0x84
pllfeed():
/home/kwilson/Projects/gfe2368/liblpc23xx/lpc23xx-pll/lpc23xx-pll.c:65
 */
void pllfeed(void) {
    uint32_t        savedInterrupts;

    /* disable interrupts */
    savedInterrupts = VICIntEnable;
     918:	e3e02000 	mvn	r2, #0
     91c:	e5124fef 	ldr	r4, [r2, #-4079]	; 0xfef
/home/kwilson/Projects/gfe2368/liblpc23xx/lpc23xx-pll/lpc23xx-pll.c:68
    VICIntEnClr     = (unsigned) 0xFFFFFFFF;

    PLLFEED         = FEEDBYTE_A;
     920:	e3e0c055 	mvn	ip, #85	; 0x55
/home/kwilson/Projects/gfe2368/liblpc23xx/lpc23xx-pll/lpc23xx-pll.c:69
    PLLFEED         = FEEDBYTE_B;
     924:	e3a01055 	mov	r1, #85	; 0x55
/home/kwilson/Projects/gfe2368/liblpc23xx/lpc23xx-pll/lpc23xx-pll.c:66
void pllfeed(void) {
    uint32_t        savedInterrupts;

    /* disable interrupts */
    savedInterrupts = VICIntEnable;
    VICIntEnClr     = (unsigned) 0xFFFFFFFF;
     928:	e5022feb 	str	r2, [r2, #-4075]	; 0xfeb
/home/kwilson/Projects/gfe2368/liblpc23xx/lpc23xx-pll/lpc23xx-pll.c:68

    PLLFEED         = FEEDBYTE_A;
     92c:	e5c3c08c 	strb	ip, [r3, #140]	; 0x8c
/home/kwilson/Projects/gfe2368/liblpc23xx/lpc23xx-pll/lpc23xx-pll.c:69
    PLLFEED         = FEEDBYTE_B;
     930:	e5c3108c 	strb	r1, [r3, #140]	; 0x8c
/home/kwilson/Projects/gfe2368/liblpc23xx/lpc23xx-pll/lpc23xx-pll.c:72

    /* restore interrupts */
    VICIntEnable    = savedInterrupts;
     934:	e5024fef 	str	r4, [r2, #-4079]	; 0xfef
pllstart_seventytwomhz():
/home/kwilson/Projects/gfe2368/liblpc23xx/lpc23xx-pll/lpc23xx-pll.c:112
    mainOSC_SELECT;

    FCCO_TWO_EIGHTY_EIGHT_MHZ;
    pllfeed();

    SET_PLLE;
     938:	e5d34080 	ldrb	r4, [r3, #128]	; 0x80
     93c:	e3844001 	orr	r4, r4, #1
     940:	e5c34080 	strb	r4, [r3, #128]	; 0x80
pllfeed():
/home/kwilson/Projects/gfe2368/liblpc23xx/lpc23xx-pll/lpc23xx-pll.c:65
 */
void pllfeed(void) {
    uint32_t        savedInterrupts;

    /* disable interrupts */
    savedInterrupts = VICIntEnable;
     944:	e5124fef 	ldr	r4, [r2, #-4079]	; 0xfef
/home/kwilson/Projects/gfe2368/liblpc23xx/lpc23xx-pll/lpc23xx-pll.c:66
    VICIntEnClr     = (unsigned) 0xFFFFFFFF;
     948:	e5022feb 	str	r2, [r2, #-4075]	; 0xfeb
/home/kwilson/Projects/gfe2368/liblpc23xx/lpc23xx-pll/lpc23xx-pll.c:68

    PLLFEED         = FEEDBYTE_A;
     94c:	e5c3c08c 	strb	ip, [r3, #140]	; 0x8c
/home/kwilson/Projects/gfe2368/liblpc23xx/lpc23xx-pll/lpc23xx-pll.c:69
    PLLFEED         = FEEDBYTE_B;
     950:	e5c3108c 	strb	r1, [r3, #140]	; 0x8c
/home/kwilson/Projects/gfe2368/liblpc23xx/lpc23xx-pll/lpc23xx-pll.c:72

    /* restore interrupts */
    VICIntEnable    = savedInterrupts;
     954:	e5024fef 	str	r4, [r2, #-4079]	; 0xfef
pllstart_seventytwomhz():
/home/kwilson/Projects/gfe2368/liblpc23xx/lpc23xx-pll/lpc23xx-pll.c:115
    pllfeed();

    SET_PLLE;
    pllfeed();

    CCLK_IS_FCCODIV4;
     958:	e3a02003 	mov	r2, #3
     95c:	e5832104 	str	r2, [r3, #260]	; 0x104
/home/kwilson/Projects/gfe2368/liblpc23xx/lpc23xx-pll/lpc23xx-pll.c:116
    USB_IS_FCCODIV6;
     960:	e3a02005 	mov	r2, #5
     964:	e5832108 	str	r2, [r3, #264]	; 0x108
/home/kwilson/Projects/gfe2368/liblpc23xx/lpc23xx-pll/lpc23xx-pll.c:118

    while(!PLOCK);
     968:	e5931088 	ldr	r1, [r3, #136]	; 0x88
     96c:	e3a0220e 	mov	r2, #-536870912	; 0xe0000000
     970:	e3110301 	tst	r1, #67108864	; 0x4000000
     974:	e282297f 	add	r2, r2, #2080768	; 0x1fc000
     978:	0afffffa 	beq	968 <pllstart_seventytwomhz+0xfc>
/home/kwilson/Projects/gfe2368/liblpc23xx/lpc23xx-pll/lpc23xx-pll.c:120

    SET_PLLCE;
     97c:	e5d23080 	ldrb	r3, [r2, #128]	; 0x80
     980:	e3833003 	orr	r3, r3, #3
     984:	e5c23080 	strb	r3, [r2, #128]	; 0x80
pllfeed():
/home/kwilson/Projects/gfe2368/liblpc23xx/lpc23xx-pll/lpc23xx-pll.c:65
 */
void pllfeed(void) {
    uint32_t        savedInterrupts;

    /* disable interrupts */
    savedInterrupts = VICIntEnable;
     988:	e3e0c000 	mvn	ip, #0
pllstart_seventytwomhz():
/home/kwilson/Projects/gfe2368/liblpc23xx/lpc23xx-pll/lpc23xx-pll.c:122

    while(!PLOCK);

    SET_PLLCE;
    pllfeed();
    pllstat.cclk_mhz = SEVENTY_TWO_MHZ;
     98c:	e3a01511 	mov	r1, #71303168	; 0x4400000
/home/kwilson/Projects/gfe2368/liblpc23xx/lpc23xx-pll/lpc23xx-pll.c:123
    pllstat.fcco_mhz = TWO_EIGHTY_EIGHT_MHZ;
     990:	e3a03411 	mov	r3, #285212672	; 0x11000000
pllfeed():
/home/kwilson/Projects/gfe2368/liblpc23xx/lpc23xx-pll/lpc23xx-pll.c:65
 */
void pllfeed(void) {
    uint32_t        savedInterrupts;

    /* disable interrupts */
    savedInterrupts = VICIntEnable;
     994:	e51c4fef 	ldr	r4, [ip, #-4079]	; 0xfef
/home/kwilson/Projects/gfe2368/liblpc23xx/lpc23xx-pll/lpc23xx-pll.c:68
    VICIntEnClr     = (unsigned) 0xFFFFFFFF;

    PLLFEED         = FEEDBYTE_A;
     998:	e3e05055 	mvn	r5, #85	; 0x55
pllstart_seventytwomhz():
/home/kwilson/Projects/gfe2368/liblpc23xx/lpc23xx-pll/lpc23xx-pll.c:122

    while(!PLOCK);

    SET_PLLCE;
    pllfeed();
    pllstat.cclk_mhz = SEVENTY_TWO_MHZ;
     99c:	e2811aaa 	add	r1, r1, #696320	; 0xaa000
/home/kwilson/Projects/gfe2368/liblpc23xx/lpc23xx-pll/lpc23xx-pll.c:123
    pllstat.fcco_mhz = TWO_EIGHTY_EIGHT_MHZ;
     9a0:	e28339aa 	add	r3, r3, #2785280	; 0x2a8000
pllfeed():
/home/kwilson/Projects/gfe2368/liblpc23xx/lpc23xx-pll/lpc23xx-pll.c:66
void pllfeed(void) {
    uint32_t        savedInterrupts;

    /* disable interrupts */
    savedInterrupts = VICIntEnable;
    VICIntEnClr     = (unsigned) 0xFFFFFFFF;
     9a4:	e50ccfeb 	str	ip, [ip, #-4075]	; 0xfeb
pllstart_seventytwomhz():
/home/kwilson/Projects/gfe2368/liblpc23xx/lpc23xx-pll/lpc23xx-pll.c:122

    while(!PLOCK);

    SET_PLLCE;
    pllfeed();
    pllstat.cclk_mhz = SEVENTY_TWO_MHZ;
     9a8:	e2811c02 	add	r1, r1, #512	; 0x200
pllfeed():
/home/kwilson/Projects/gfe2368/liblpc23xx/lpc23xx-pll/lpc23xx-pll.c:68

    /* disable interrupts */
    savedInterrupts = VICIntEnable;
    VICIntEnClr     = (unsigned) 0xFFFFFFFF;

    PLLFEED         = FEEDBYTE_A;
     9ac:	e5c2508c 	strb	r5, [r2, #140]	; 0x8c
pllstart_seventytwomhz():
/home/kwilson/Projects/gfe2368/liblpc23xx/lpc23xx-pll/lpc23xx-pll.c:123
    while(!PLOCK);

    SET_PLLCE;
    pllfeed();
    pllstat.cclk_mhz = SEVENTY_TWO_MHZ;
    pllstat.fcco_mhz = TWO_EIGHTY_EIGHT_MHZ;
     9b0:	e2833b02 	add	r3, r3, #2048	; 0x800
pllfeed():
/home/kwilson/Projects/gfe2368/liblpc23xx/lpc23xx-pll/lpc23xx-pll.c:69
    /* disable interrupts */
    savedInterrupts = VICIntEnable;
    VICIntEnClr     = (unsigned) 0xFFFFFFFF;

    PLLFEED         = FEEDBYTE_A;
    PLLFEED         = FEEDBYTE_B;
     9b4:	e3a05055 	mov	r5, #85	; 0x55
     9b8:	e5c2508c 	strb	r5, [r2, #140]	; 0x8c
/home/kwilson/Projects/gfe2368/liblpc23xx/lpc23xx-pll/lpc23xx-pll.c:72

    /* restore interrupts */
    VICIntEnable    = savedInterrupts;
     9bc:	e50c4fef 	str	r4, [ip, #-4079]	; 0xfef
pllstart_seventytwomhz():
/home/kwilson/Projects/gfe2368/liblpc23xx/lpc23xx-pll/lpc23xx-pll.c:122

    while(!PLOCK);

    SET_PLLCE;
    pllfeed();
    pllstat.cclk_mhz = SEVENTY_TWO_MHZ;
     9c0:	e880000a 	stm	r0, {r1, r3}
/home/kwilson/Projects/gfe2368/liblpc23xx/lpc23xx-pll/lpc23xx-pll.c:124
    pllstat.fcco_mhz = TWO_EIGHTY_EIGHT_MHZ;
}
     9c4:	e8bd0030 	pop	{r4, r5}
     9c8:	e12fff1e 	bx	lr
     9cc:	40000438 	.word	0x40000438

000009d0 <pllstart_sixtymhz>:
pllstop():
/home/kwilson/Projects/gfe2368/liblpc23xx/lpc23xx-pll/lpc23xx-pll.c:83
 */
void pllstop(void) {

    uint32_t status;

    status          = PLLSTAT;
     9d0:	e3a0320e 	mov	r3, #-536870912	; 0xe0000000
     9d4:	e283397f 	add	r3, r3, #2080768	; 0x1fc000
     9d8:	e5932088 	ldr	r2, [r3, #136]	; 0x88
/home/kwilson/Projects/gfe2368/liblpc23xx/lpc23xx-pll/lpc23xx-pll.c:85

    if(PLLC != 0) {
     9dc:	e5932088 	ldr	r2, [r3, #136]	; 0x88
pllstart_sixtymhz():
/home/kwilson/Projects/gfe2368/liblpc23xx/lpc23xx-pll/lpc23xx-pll.c:134
 * lpc23xx rev03 p60
 * Fcco = 480Mhz, M=20, N=1, Fin = 12Mhz 
 * \brief run cclk at 60Mhz
 */
void pllstart_sixtymhz(void) { 
    pllstat.cclk_mhz = ZERO;
     9e0:	e59f0148 	ldr	r0, [pc, #328]	; b30 <pllstart_sixtymhz+0x160>
pllstop():
/home/kwilson/Projects/gfe2368/liblpc23xx/lpc23xx-pll/lpc23xx-pll.c:85

    uint32_t status;

    status          = PLLSTAT;

    if(PLLC != 0) {
     9e4:	e3120402 	tst	r2, #33554432	; 0x2000000
pllstart_sixtymhz():
/home/kwilson/Projects/gfe2368/liblpc23xx/lpc23xx-pll/lpc23xx-pll.c:134
 * lpc23xx rev03 p60
 * Fcco = 480Mhz, M=20, N=1, Fin = 12Mhz 
 * \brief run cclk at 60Mhz
 */
void pllstart_sixtymhz(void) { 
    pllstat.cclk_mhz = ZERO;
     9e8:	e3a02000 	mov	r2, #0
/home/kwilson/Projects/gfe2368/liblpc23xx/lpc23xx-pll/lpc23xx-pll.c:133
 * pllstart_sixtymhz
 * lpc23xx rev03 p60
 * Fcco = 480Mhz, M=20, N=1, Fin = 12Mhz 
 * \brief run cclk at 60Mhz
 */
void pllstart_sixtymhz(void) { 
     9ec:	e92d0030 	push	{r4, r5}
/home/kwilson/Projects/gfe2368/liblpc23xx/lpc23xx-pll/lpc23xx-pll.c:134
    pllstat.cclk_mhz = ZERO;
     9f0:	e5802000 	str	r2, [r0]
pllstop():
/home/kwilson/Projects/gfe2368/liblpc23xx/lpc23xx-pll/lpc23xx-pll.c:85

    uint32_t status;

    status          = PLLSTAT;

    if(PLLC != 0) {
     9f4:	0a000012 	beq	a44 <pllstart_sixtymhz+0x74>
/home/kwilson/Projects/gfe2368/liblpc23xx/lpc23xx-pll/lpc23xx-pll.c:86
        CLEAR_PLLC; 
     9f8:	e5d32080 	ldrb	r2, [r3, #128]	; 0x80
     9fc:	e20220fd 	and	r2, r2, #253	; 0xfd
     a00:	e5c32080 	strb	r2, [r3, #128]	; 0x80
pllfeed():
/home/kwilson/Projects/gfe2368/liblpc23xx/lpc23xx-pll/lpc23xx-pll.c:65
 */
void pllfeed(void) {
    uint32_t        savedInterrupts;

    /* disable interrupts */
    savedInterrupts = VICIntEnable;
     a04:	e3e02000 	mvn	r2, #0
     a08:	e5124fef 	ldr	r4, [r2, #-4079]	; 0xfef
/home/kwilson/Projects/gfe2368/liblpc23xx/lpc23xx-pll/lpc23xx-pll.c:68
    VICIntEnClr     = (unsigned) 0xFFFFFFFF;

    PLLFEED         = FEEDBYTE_A;
     a0c:	e3e0c055 	mvn	ip, #85	; 0x55
/home/kwilson/Projects/gfe2368/liblpc23xx/lpc23xx-pll/lpc23xx-pll.c:69
    PLLFEED         = FEEDBYTE_B;
     a10:	e3a01055 	mov	r1, #85	; 0x55
/home/kwilson/Projects/gfe2368/liblpc23xx/lpc23xx-pll/lpc23xx-pll.c:66
void pllfeed(void) {
    uint32_t        savedInterrupts;

    /* disable interrupts */
    savedInterrupts = VICIntEnable;
    VICIntEnClr     = (unsigned) 0xFFFFFFFF;
     a14:	e5022feb 	str	r2, [r2, #-4075]	; 0xfeb
/home/kwilson/Projects/gfe2368/liblpc23xx/lpc23xx-pll/lpc23xx-pll.c:68

    PLLFEED         = FEEDBYTE_A;
     a18:	e5c3c08c 	strb	ip, [r3, #140]	; 0x8c
/home/kwilson/Projects/gfe2368/liblpc23xx/lpc23xx-pll/lpc23xx-pll.c:69
    PLLFEED         = FEEDBYTE_B;
     a1c:	e5c3108c 	strb	r1, [r3, #140]	; 0x8c
/home/kwilson/Projects/gfe2368/liblpc23xx/lpc23xx-pll/lpc23xx-pll.c:72

    /* restore interrupts */
    VICIntEnable    = savedInterrupts;
     a20:	e5024fef 	str	r4, [r2, #-4079]	; 0xfef
pllstop():
/home/kwilson/Projects/gfe2368/liblpc23xx/lpc23xx-pll/lpc23xx-pll.c:88
    status          = PLLSTAT;

    if(PLLC != 0) {
        CLEAR_PLLC; 
        pllfeed();
        CLEAR_PLLE; 
     a24:	e5d34080 	ldrb	r4, [r3, #128]	; 0x80
     a28:	e20440fe 	and	r4, r4, #254	; 0xfe
     a2c:	e5c34080 	strb	r4, [r3, #128]	; 0x80
pllfeed():
/home/kwilson/Projects/gfe2368/liblpc23xx/lpc23xx-pll/lpc23xx-pll.c:65
 */
void pllfeed(void) {
    uint32_t        savedInterrupts;

    /* disable interrupts */
    savedInterrupts = VICIntEnable;
     a30:	e5124fef 	ldr	r4, [r2, #-4079]	; 0xfef
/home/kwilson/Projects/gfe2368/liblpc23xx/lpc23xx-pll/lpc23xx-pll.c:66
    VICIntEnClr     = (unsigned) 0xFFFFFFFF;
     a34:	e5022feb 	str	r2, [r2, #-4075]	; 0xfeb
/home/kwilson/Projects/gfe2368/liblpc23xx/lpc23xx-pll/lpc23xx-pll.c:68

    PLLFEED         = FEEDBYTE_A;
     a38:	e5c3c08c 	strb	ip, [r3, #140]	; 0x8c
/home/kwilson/Projects/gfe2368/liblpc23xx/lpc23xx-pll/lpc23xx-pll.c:69
    PLLFEED         = FEEDBYTE_B;
     a3c:	e5c3108c 	strb	r1, [r3, #140]	; 0x8c
/home/kwilson/Projects/gfe2368/liblpc23xx/lpc23xx-pll/lpc23xx-pll.c:72

    /* restore interrupts */
    VICIntEnable    = savedInterrupts;
     a40:	e5024fef 	str	r4, [r2, #-4079]	; 0xfef
pllstart_sixtymhz():
/home/kwilson/Projects/gfe2368/liblpc23xx/lpc23xx-pll/lpc23xx-pll.c:138
void pllstart_sixtymhz(void) { 
    pllstat.cclk_mhz = ZERO;

    pllstop();

    mainOSC_ENABLE;
     a44:	e3a0120e 	mov	r1, #-536870912	; 0xe0000000
     a48:	e281197f 	add	r1, r1, #2080768	; 0x1fc000
     a4c:	e59131a0 	ldr	r3, [r1, #416]	; 0x1a0
     a50:	e3833020 	orr	r3, r3, #32
     a54:	e58131a0 	str	r3, [r1, #416]	; 0x1a0
/home/kwilson/Projects/gfe2368/liblpc23xx/lpc23xx-pll/lpc23xx-pll.c:139
    while (!mainOSC_READY);
     a58:	e59121a0 	ldr	r2, [r1, #416]	; 0x1a0
     a5c:	e3a0320e 	mov	r3, #-536870912	; 0xe0000000
     a60:	e3120040 	tst	r2, #64	; 0x40
     a64:	e283397f 	add	r3, r3, #2080768	; 0x1fc000
     a68:	0afffffa 	beq	a58 <pllstart_sixtymhz+0x88>
/home/kwilson/Projects/gfe2368/liblpc23xx/lpc23xx-pll/lpc23xx-pll.c:141

    mainOSC_SELECT;
     a6c:	e3a02001 	mov	r2, #1
     a70:	e583210c 	str	r2, [r3, #268]	; 0x10c
/home/kwilson/Projects/gfe2368/liblpc23xx/lpc23xx-pll/lpc23xx-pll.c:143

    FCCO_FOUR_EIGHTY_MHZ;
     a74:	e3a02013 	mov	r2, #19
     a78:	e5832084 	str	r2, [r3, #132]	; 0x84
pllfeed():
/home/kwilson/Projects/gfe2368/liblpc23xx/lpc23xx-pll/lpc23xx-pll.c:65
 */
void pllfeed(void) {
    uint32_t        savedInterrupts;

    /* disable interrupts */
    savedInterrupts = VICIntEnable;
     a7c:	e3e02000 	mvn	r2, #0
     a80:	e5124fef 	ldr	r4, [r2, #-4079]	; 0xfef
/home/kwilson/Projects/gfe2368/liblpc23xx/lpc23xx-pll/lpc23xx-pll.c:68
    VICIntEnClr     = (unsigned) 0xFFFFFFFF;

    PLLFEED         = FEEDBYTE_A;
     a84:	e3e0c055 	mvn	ip, #85	; 0x55
/home/kwilson/Projects/gfe2368/liblpc23xx/lpc23xx-pll/lpc23xx-pll.c:69
    PLLFEED         = FEEDBYTE_B;
     a88:	e3a01055 	mov	r1, #85	; 0x55
/home/kwilson/Projects/gfe2368/liblpc23xx/lpc23xx-pll/lpc23xx-pll.c:66
void pllfeed(void) {
    uint32_t        savedInterrupts;

    /* disable interrupts */
    savedInterrupts = VICIntEnable;
    VICIntEnClr     = (unsigned) 0xFFFFFFFF;
     a8c:	e5022feb 	str	r2, [r2, #-4075]	; 0xfeb
/home/kwilson/Projects/gfe2368/liblpc23xx/lpc23xx-pll/lpc23xx-pll.c:68

    PLLFEED         = FEEDBYTE_A;
     a90:	e5c3c08c 	strb	ip, [r3, #140]	; 0x8c
/home/kwilson/Projects/gfe2368/liblpc23xx/lpc23xx-pll/lpc23xx-pll.c:69
    PLLFEED         = FEEDBYTE_B;
     a94:	e5c3108c 	strb	r1, [r3, #140]	; 0x8c
/home/kwilson/Projects/gfe2368/liblpc23xx/lpc23xx-pll/lpc23xx-pll.c:72

    /* restore interrupts */
    VICIntEnable    = savedInterrupts;
     a98:	e5024fef 	str	r4, [r2, #-4079]	; 0xfef
pllstart_sixtymhz():
/home/kwilson/Projects/gfe2368/liblpc23xx/lpc23xx-pll/lpc23xx-pll.c:146
    mainOSC_SELECT;

    FCCO_FOUR_EIGHTY_MHZ;
    pllfeed();

    SET_PLLE;
     a9c:	e5d34080 	ldrb	r4, [r3, #128]	; 0x80
     aa0:	e3844001 	orr	r4, r4, #1
     aa4:	e5c34080 	strb	r4, [r3, #128]	; 0x80
pllfeed():
/home/kwilson/Projects/gfe2368/liblpc23xx/lpc23xx-pll/lpc23xx-pll.c:65
 */
void pllfeed(void) {
    uint32_t        savedInterrupts;

    /* disable interrupts */
    savedInterrupts = VICIntEnable;
     aa8:	e5124fef 	ldr	r4, [r2, #-4079]	; 0xfef
/home/kwilson/Projects/gfe2368/liblpc23xx/lpc23xx-pll/lpc23xx-pll.c:66
    VICIntEnClr     = (unsigned) 0xFFFFFFFF;
     aac:	e5022feb 	str	r2, [r2, #-4075]	; 0xfeb
/home/kwilson/Projects/gfe2368/liblpc23xx/lpc23xx-pll/lpc23xx-pll.c:68

    PLLFEED         = FEEDBYTE_A;
     ab0:	e5c3c08c 	strb	ip, [r3, #140]	; 0x8c
/home/kwilson/Projects/gfe2368/liblpc23xx/lpc23xx-pll/lpc23xx-pll.c:69
    PLLFEED         = FEEDBYTE_B;
     ab4:	e5c3108c 	strb	r1, [r3, #140]	; 0x8c
/home/kwilson/Projects/gfe2368/liblpc23xx/lpc23xx-pll/lpc23xx-pll.c:72

    /* restore interrupts */
    VICIntEnable    = savedInterrupts;
     ab8:	e5024fef 	str	r4, [r2, #-4079]	; 0xfef
pllstart_sixtymhz():
/home/kwilson/Projects/gfe2368/liblpc23xx/lpc23xx-pll/lpc23xx-pll.c:149
    pllfeed();

    SET_PLLE;
    pllfeed();

    CCLK_IS_FCCODIV8;
     abc:	e3a02007 	mov	r2, #7
     ac0:	e5832104 	str	r2, [r3, #260]	; 0x104
/home/kwilson/Projects/gfe2368/liblpc23xx/lpc23xx-pll/lpc23xx-pll.c:150
    USB_IS_FCCODIV10;
     ac4:	e3a02009 	mov	r2, #9
     ac8:	e5832108 	str	r2, [r3, #264]	; 0x108
/home/kwilson/Projects/gfe2368/liblpc23xx/lpc23xx-pll/lpc23xx-pll.c:152

    while(!PLOCK);
     acc:	e5931088 	ldr	r1, [r3, #136]	; 0x88
     ad0:	e3a0220e 	mov	r2, #-536870912	; 0xe0000000
     ad4:	e3110301 	tst	r1, #67108864	; 0x4000000
     ad8:	e282297f 	add	r2, r2, #2080768	; 0x1fc000
     adc:	0afffffa 	beq	acc <pllstart_sixtymhz+0xfc>
/home/kwilson/Projects/gfe2368/liblpc23xx/lpc23xx-pll/lpc23xx-pll.c:154

    SET_PLLCE;
     ae0:	e5d23080 	ldrb	r3, [r2, #128]	; 0x80
     ae4:	e3833003 	orr	r3, r3, #3
     ae8:	e5c23080 	strb	r3, [r2, #128]	; 0x80
pllfeed():
/home/kwilson/Projects/gfe2368/liblpc23xx/lpc23xx-pll/lpc23xx-pll.c:65
 */
void pllfeed(void) {
    uint32_t        savedInterrupts;

    /* disable interrupts */
    savedInterrupts = VICIntEnable;
     aec:	e3e01000 	mvn	r1, #0
pllstart_sixtymhz():
/home/kwilson/Projects/gfe2368/liblpc23xx/lpc23xx-pll/lpc23xx-pll.c:157
    while(!PLOCK);

    SET_PLLCE;
    pllfeed();
    pllstat.cclk_mhz = SIXTY_MHZ;
    pllstat.fcco_mhz = FOUR_EIGHTY_MHZ;
     af0:	e3a03572 	mov	r3, #478150656	; 0x1c800000
pllfeed():
/home/kwilson/Projects/gfe2368/liblpc23xx/lpc23xx-pll/lpc23xx-pll.c:65
 */
void pllfeed(void) {
    uint32_t        savedInterrupts;

    /* disable interrupts */
    savedInterrupts = VICIntEnable;
     af4:	e5114fef 	ldr	r4, [r1, #-4079]	; 0xfef
/home/kwilson/Projects/gfe2368/liblpc23xx/lpc23xx-pll/lpc23xx-pll.c:68
    VICIntEnClr     = (unsigned) 0xFFFFFFFF;

    PLLFEED         = FEEDBYTE_A;
     af8:	e3e05055 	mvn	r5, #85	; 0x55
pllstart_sixtymhz():
/home/kwilson/Projects/gfe2368/liblpc23xx/lpc23xx-pll/lpc23xx-pll.c:156

    while(!PLOCK);

    SET_PLLCE;
    pllfeed();
    pllstat.cclk_mhz = SIXTY_MHZ;
     afc:	e3a0c7e5 	mov	ip, #60030976	; 0x3940000
/home/kwilson/Projects/gfe2368/liblpc23xx/lpc23xx-pll/lpc23xx-pll.c:157
    pllstat.fcco_mhz = FOUR_EIGHTY_MHZ;
     b00:	e2833707 	add	r3, r3, #1835008	; 0x1c0000
pllfeed():
/home/kwilson/Projects/gfe2368/liblpc23xx/lpc23xx-pll/lpc23xx-pll.c:66
void pllfeed(void) {
    uint32_t        savedInterrupts;

    /* disable interrupts */
    savedInterrupts = VICIntEnable;
    VICIntEnClr     = (unsigned) 0xFFFFFFFF;
     b04:	e5011feb 	str	r1, [r1, #-4075]	; 0xfeb
pllstart_sixtymhz():
/home/kwilson/Projects/gfe2368/liblpc23xx/lpc23xx-pll/lpc23xx-pll.c:156

    while(!PLOCK);

    SET_PLLCE;
    pllfeed();
    pllstat.cclk_mhz = SIXTY_MHZ;
     b08:	e24ccc79 	sub	ip, ip, #30976	; 0x7900
pllfeed():
/home/kwilson/Projects/gfe2368/liblpc23xx/lpc23xx-pll/lpc23xx-pll.c:68

    /* disable interrupts */
    savedInterrupts = VICIntEnable;
    VICIntEnClr     = (unsigned) 0xFFFFFFFF;

    PLLFEED         = FEEDBYTE_A;
     b0c:	e5c2508c 	strb	r5, [r2, #140]	; 0x8c
pllstart_sixtymhz():
/home/kwilson/Projects/gfe2368/liblpc23xx/lpc23xx-pll/lpc23xx-pll.c:157
    while(!PLOCK);

    SET_PLLCE;
    pllfeed();
    pllstat.cclk_mhz = SIXTY_MHZ;
    pllstat.fcco_mhz = FOUR_EIGHTY_MHZ;
     b10:	e2833b0e 	add	r3, r3, #14336	; 0x3800
pllfeed():
/home/kwilson/Projects/gfe2368/liblpc23xx/lpc23xx-pll/lpc23xx-pll.c:69
    /* disable interrupts */
    savedInterrupts = VICIntEnable;
    VICIntEnClr     = (unsigned) 0xFFFFFFFF;

    PLLFEED         = FEEDBYTE_A;
    PLLFEED         = FEEDBYTE_B;
     b14:	e3a05055 	mov	r5, #85	; 0x55
     b18:	e5c2508c 	strb	r5, [r2, #140]	; 0x8c
/home/kwilson/Projects/gfe2368/liblpc23xx/lpc23xx-pll/lpc23xx-pll.c:72

    /* restore interrupts */
    VICIntEnable    = savedInterrupts;
     b1c:	e5014fef 	str	r4, [r1, #-4079]	; 0xfef
pllstart_sixtymhz():
/home/kwilson/Projects/gfe2368/liblpc23xx/lpc23xx-pll/lpc23xx-pll.c:156

    while(!PLOCK);

    SET_PLLCE;
    pllfeed();
    pllstat.cclk_mhz = SIXTY_MHZ;
     b20:	e580c000 	str	ip, [r0]
/home/kwilson/Projects/gfe2368/liblpc23xx/lpc23xx-pll/lpc23xx-pll.c:157
    pllstat.fcco_mhz = FOUR_EIGHTY_MHZ;
     b24:	e5803004 	str	r3, [r0, #4]
/home/kwilson/Projects/gfe2368/liblpc23xx/lpc23xx-pll/lpc23xx-pll.c:159

}
     b28:	e8bd0030 	pop	{r4, r5}
     b2c:	e12fff1e 	bx	lr
     b30:	40000438 	.word	0x40000438

00000b34 <pllstart_fourtyeightmhz>:
pllstop():
/home/kwilson/Projects/gfe2368/liblpc23xx/lpc23xx-pll/lpc23xx-pll.c:83
 */
void pllstop(void) {

    uint32_t status;

    status          = PLLSTAT;
     b34:	e3a0320e 	mov	r3, #-536870912	; 0xe0000000
     b38:	e283397f 	add	r3, r3, #2080768	; 0x1fc000
     b3c:	e5932088 	ldr	r2, [r3, #136]	; 0x88
/home/kwilson/Projects/gfe2368/liblpc23xx/lpc23xx-pll/lpc23xx-pll.c:85

    if(PLLC != 0) {
     b40:	e5932088 	ldr	r2, [r3, #136]	; 0x88
pllstart_fourtyeightmhz():
/home/kwilson/Projects/gfe2368/liblpc23xx/lpc23xx-pll/lpc23xx-pll.c:168
 * lpc23xx rev03 p60
 * Fcco = 480Mhz, M=20, N=1, Fin = 12Mhz
 * \brief run cclk at 48Mhz
 */
void pllstart_fourtyeightmhz(void) {
    pllstat.cclk_mhz = ZERO;
     b44:	e59f0144 	ldr	r0, [pc, #324]	; c90 <pllstart_fourtyeightmhz+0x15c>
pllstop():
/home/kwilson/Projects/gfe2368/liblpc23xx/lpc23xx-pll/lpc23xx-pll.c:85

    uint32_t status;

    status          = PLLSTAT;

    if(PLLC != 0) {
     b48:	e3120402 	tst	r2, #33554432	; 0x2000000
pllstart_fourtyeightmhz():
/home/kwilson/Projects/gfe2368/liblpc23xx/lpc23xx-pll/lpc23xx-pll.c:168
 * lpc23xx rev03 p60
 * Fcco = 480Mhz, M=20, N=1, Fin = 12Mhz
 * \brief run cclk at 48Mhz
 */
void pllstart_fourtyeightmhz(void) {
    pllstat.cclk_mhz = ZERO;
     b4c:	e3a02000 	mov	r2, #0
/home/kwilson/Projects/gfe2368/liblpc23xx/lpc23xx-pll/lpc23xx-pll.c:167
 * pllstart_fourtyeightmhz
 * lpc23xx rev03 p60
 * Fcco = 480Mhz, M=20, N=1, Fin = 12Mhz
 * \brief run cclk at 48Mhz
 */
void pllstart_fourtyeightmhz(void) {
     b50:	e92d0030 	push	{r4, r5}
/home/kwilson/Projects/gfe2368/liblpc23xx/lpc23xx-pll/lpc23xx-pll.c:168
    pllstat.cclk_mhz = ZERO;
     b54:	e5802000 	str	r2, [r0]
pllstop():
/home/kwilson/Projects/gfe2368/liblpc23xx/lpc23xx-pll/lpc23xx-pll.c:85

    uint32_t status;

    status          = PLLSTAT;

    if(PLLC != 0) {
     b58:	0a000012 	beq	ba8 <pllstart_fourtyeightmhz+0x74>
/home/kwilson/Projects/gfe2368/liblpc23xx/lpc23xx-pll/lpc23xx-pll.c:86
        CLEAR_PLLC; 
     b5c:	e5d32080 	ldrb	r2, [r3, #128]	; 0x80
     b60:	e20220fd 	and	r2, r2, #253	; 0xfd
     b64:	e5c32080 	strb	r2, [r3, #128]	; 0x80
pllfeed():
/home/kwilson/Projects/gfe2368/liblpc23xx/lpc23xx-pll/lpc23xx-pll.c:65
 */
void pllfeed(void) {
    uint32_t        savedInterrupts;

    /* disable interrupts */
    savedInterrupts = VICIntEnable;
     b68:	e3e02000 	mvn	r2, #0
     b6c:	e5124fef 	ldr	r4, [r2, #-4079]	; 0xfef
/home/kwilson/Projects/gfe2368/liblpc23xx/lpc23xx-pll/lpc23xx-pll.c:68
    VICIntEnClr     = (unsigned) 0xFFFFFFFF;

    PLLFEED         = FEEDBYTE_A;
     b70:	e3e0c055 	mvn	ip, #85	; 0x55
/home/kwilson/Projects/gfe2368/liblpc23xx/lpc23xx-pll/lpc23xx-pll.c:69
    PLLFEED         = FEEDBYTE_B;
     b74:	e3a01055 	mov	r1, #85	; 0x55
/home/kwilson/Projects/gfe2368/liblpc23xx/lpc23xx-pll/lpc23xx-pll.c:66
void pllfeed(void) {
    uint32_t        savedInterrupts;

    /* disable interrupts */
    savedInterrupts = VICIntEnable;
    VICIntEnClr     = (unsigned) 0xFFFFFFFF;
     b78:	e5022feb 	str	r2, [r2, #-4075]	; 0xfeb
/home/kwilson/Projects/gfe2368/liblpc23xx/lpc23xx-pll/lpc23xx-pll.c:68

    PLLFEED         = FEEDBYTE_A;
     b7c:	e5c3c08c 	strb	ip, [r3, #140]	; 0x8c
/home/kwilson/Projects/gfe2368/liblpc23xx/lpc23xx-pll/lpc23xx-pll.c:69
    PLLFEED         = FEEDBYTE_B;
     b80:	e5c3108c 	strb	r1, [r3, #140]	; 0x8c
/home/kwilson/Projects/gfe2368/liblpc23xx/lpc23xx-pll/lpc23xx-pll.c:72

    /* restore interrupts */
    VICIntEnable    = savedInterrupts;
     b84:	e5024fef 	str	r4, [r2, #-4079]	; 0xfef
pllstop():
/home/kwilson/Projects/gfe2368/liblpc23xx/lpc23xx-pll/lpc23xx-pll.c:88
    status          = PLLSTAT;

    if(PLLC != 0) {
        CLEAR_PLLC; 
        pllfeed();
        CLEAR_PLLE; 
     b88:	e5d34080 	ldrb	r4, [r3, #128]	; 0x80
     b8c:	e20440fe 	and	r4, r4, #254	; 0xfe
     b90:	e5c34080 	strb	r4, [r3, #128]	; 0x80
pllfeed():
/home/kwilson/Projects/gfe2368/liblpc23xx/lpc23xx-pll/lpc23xx-pll.c:65
 */
void pllfeed(void) {
    uint32_t        savedInterrupts;

    /* disable interrupts */
    savedInterrupts = VICIntEnable;
     b94:	e5124fef 	ldr	r4, [r2, #-4079]	; 0xfef
/home/kwilson/Projects/gfe2368/liblpc23xx/lpc23xx-pll/lpc23xx-pll.c:66
    VICIntEnClr     = (unsigned) 0xFFFFFFFF;
     b98:	e5022feb 	str	r2, [r2, #-4075]	; 0xfeb
/home/kwilson/Projects/gfe2368/liblpc23xx/lpc23xx-pll/lpc23xx-pll.c:68

    PLLFEED         = FEEDBYTE_A;
     b9c:	e5c3c08c 	strb	ip, [r3, #140]	; 0x8c
/home/kwilson/Projects/gfe2368/liblpc23xx/lpc23xx-pll/lpc23xx-pll.c:69
    PLLFEED         = FEEDBYTE_B;
     ba0:	e5c3108c 	strb	r1, [r3, #140]	; 0x8c
/home/kwilson/Projects/gfe2368/liblpc23xx/lpc23xx-pll/lpc23xx-pll.c:72

    /* restore interrupts */
    VICIntEnable    = savedInterrupts;
     ba4:	e5024fef 	str	r4, [r2, #-4079]	; 0xfef
pllstart_fourtyeightmhz():
/home/kwilson/Projects/gfe2368/liblpc23xx/lpc23xx-pll/lpc23xx-pll.c:172
void pllstart_fourtyeightmhz(void) {
    pllstat.cclk_mhz = ZERO;

    pllstop();

    mainOSC_ENABLE;
     ba8:	e3a0120e 	mov	r1, #-536870912	; 0xe0000000
     bac:	e281197f 	add	r1, r1, #2080768	; 0x1fc000
     bb0:	e59131a0 	ldr	r3, [r1, #416]	; 0x1a0
     bb4:	e3833020 	orr	r3, r3, #32
     bb8:	e58131a0 	str	r3, [r1, #416]	; 0x1a0
/home/kwilson/Projects/gfe2368/liblpc23xx/lpc23xx-pll/lpc23xx-pll.c:173
    while (!mainOSC_READY);
     bbc:	e59121a0 	ldr	r2, [r1, #416]	; 0x1a0
     bc0:	e3a0320e 	mov	r3, #-536870912	; 0xe0000000
     bc4:	e3120040 	tst	r2, #64	; 0x40
     bc8:	e283397f 	add	r3, r3, #2080768	; 0x1fc000
     bcc:	0afffffa 	beq	bbc <pllstart_fourtyeightmhz+0x88>
/home/kwilson/Projects/gfe2368/liblpc23xx/lpc23xx-pll/lpc23xx-pll.c:175

    mainOSC_SELECT;
     bd0:	e3a02001 	mov	r2, #1
     bd4:	e583210c 	str	r2, [r3, #268]	; 0x10c
/home/kwilson/Projects/gfe2368/liblpc23xx/lpc23xx-pll/lpc23xx-pll.c:177

    FCCO_FOUR_EIGHTY_MHZ;
     bd8:	e3a02013 	mov	r2, #19
     bdc:	e5832084 	str	r2, [r3, #132]	; 0x84
pllfeed():
/home/kwilson/Projects/gfe2368/liblpc23xx/lpc23xx-pll/lpc23xx-pll.c:65
 */
void pllfeed(void) {
    uint32_t        savedInterrupts;

    /* disable interrupts */
    savedInterrupts = VICIntEnable;
     be0:	e3e02000 	mvn	r2, #0
     be4:	e5121fef 	ldr	r1, [r2, #-4079]	; 0xfef
/home/kwilson/Projects/gfe2368/liblpc23xx/lpc23xx-pll/lpc23xx-pll.c:68
    VICIntEnClr     = (unsigned) 0xFFFFFFFF;

    PLLFEED         = FEEDBYTE_A;
     be8:	e3e04055 	mvn	r4, #85	; 0x55
/home/kwilson/Projects/gfe2368/liblpc23xx/lpc23xx-pll/lpc23xx-pll.c:69
    PLLFEED         = FEEDBYTE_B;
     bec:	e3a0c055 	mov	ip, #85	; 0x55
/home/kwilson/Projects/gfe2368/liblpc23xx/lpc23xx-pll/lpc23xx-pll.c:66
void pllfeed(void) {
    uint32_t        savedInterrupts;

    /* disable interrupts */
    savedInterrupts = VICIntEnable;
    VICIntEnClr     = (unsigned) 0xFFFFFFFF;
     bf0:	e5022feb 	str	r2, [r2, #-4075]	; 0xfeb
/home/kwilson/Projects/gfe2368/liblpc23xx/lpc23xx-pll/lpc23xx-pll.c:68

    PLLFEED         = FEEDBYTE_A;
     bf4:	e5c3408c 	strb	r4, [r3, #140]	; 0x8c
/home/kwilson/Projects/gfe2368/liblpc23xx/lpc23xx-pll/lpc23xx-pll.c:69
    PLLFEED         = FEEDBYTE_B;
     bf8:	e5c3c08c 	strb	ip, [r3, #140]	; 0x8c
/home/kwilson/Projects/gfe2368/liblpc23xx/lpc23xx-pll/lpc23xx-pll.c:72

    /* restore interrupts */
    VICIntEnable    = savedInterrupts;
     bfc:	e5021fef 	str	r1, [r2, #-4079]	; 0xfef
pllstart_fourtyeightmhz():
/home/kwilson/Projects/gfe2368/liblpc23xx/lpc23xx-pll/lpc23xx-pll.c:180
    mainOSC_SELECT;

    FCCO_FOUR_EIGHTY_MHZ;
    pllfeed();

    SET_PLLE;
     c00:	e5d31080 	ldrb	r1, [r3, #128]	; 0x80
     c04:	e3811001 	orr	r1, r1, #1
     c08:	e5c31080 	strb	r1, [r3, #128]	; 0x80
pllfeed():
/home/kwilson/Projects/gfe2368/liblpc23xx/lpc23xx-pll/lpc23xx-pll.c:65
 */
void pllfeed(void) {
    uint32_t        savedInterrupts;

    /* disable interrupts */
    savedInterrupts = VICIntEnable;
     c0c:	e5125fef 	ldr	r5, [r2, #-4079]	; 0xfef
pllstart_fourtyeightmhz():
/home/kwilson/Projects/gfe2368/liblpc23xx/lpc23xx-pll/lpc23xx-pll.c:183
    pllfeed();

    SET_PLLE;
    pllfeed();

    CCLK_IS_FCCODIV10;
     c10:	e3a01009 	mov	r1, #9
pllfeed():
/home/kwilson/Projects/gfe2368/liblpc23xx/lpc23xx-pll/lpc23xx-pll.c:66
void pllfeed(void) {
    uint32_t        savedInterrupts;

    /* disable interrupts */
    savedInterrupts = VICIntEnable;
    VICIntEnClr     = (unsigned) 0xFFFFFFFF;
     c14:	e5022feb 	str	r2, [r2, #-4075]	; 0xfeb
/home/kwilson/Projects/gfe2368/liblpc23xx/lpc23xx-pll/lpc23xx-pll.c:68

    PLLFEED         = FEEDBYTE_A;
     c18:	e5c3408c 	strb	r4, [r3, #140]	; 0x8c
/home/kwilson/Projects/gfe2368/liblpc23xx/lpc23xx-pll/lpc23xx-pll.c:69
    PLLFEED         = FEEDBYTE_B;
     c1c:	e5c3c08c 	strb	ip, [r3, #140]	; 0x8c
/home/kwilson/Projects/gfe2368/liblpc23xx/lpc23xx-pll/lpc23xx-pll.c:72

    /* restore interrupts */
    VICIntEnable    = savedInterrupts;
     c20:	e5025fef 	str	r5, [r2, #-4079]	; 0xfef
pllstart_fourtyeightmhz():
/home/kwilson/Projects/gfe2368/liblpc23xx/lpc23xx-pll/lpc23xx-pll.c:183
    pllfeed();

    SET_PLLE;
    pllfeed();

    CCLK_IS_FCCODIV10;
     c24:	e5831104 	str	r1, [r3, #260]	; 0x104
/home/kwilson/Projects/gfe2368/liblpc23xx/lpc23xx-pll/lpc23xx-pll.c:184
    USB_IS_FCCODIV10;
     c28:	e5831108 	str	r1, [r3, #264]	; 0x108
/home/kwilson/Projects/gfe2368/liblpc23xx/lpc23xx-pll/lpc23xx-pll.c:186

    while(!PLOCK);
     c2c:	e5931088 	ldr	r1, [r3, #136]	; 0x88
     c30:	e3a0220e 	mov	r2, #-536870912	; 0xe0000000
     c34:	e3110301 	tst	r1, #67108864	; 0x4000000
     c38:	e282297f 	add	r2, r2, #2080768	; 0x1fc000
     c3c:	0afffffa 	beq	c2c <pllstart_fourtyeightmhz+0xf8>
/home/kwilson/Projects/gfe2368/liblpc23xx/lpc23xx-pll/lpc23xx-pll.c:188

    SET_PLLCE;
     c40:	e5d23080 	ldrb	r3, [r2, #128]	; 0x80
     c44:	e3833003 	orr	r3, r3, #3
     c48:	e5c23080 	strb	r3, [r2, #128]	; 0x80
pllfeed():
/home/kwilson/Projects/gfe2368/liblpc23xx/lpc23xx-pll/lpc23xx-pll.c:65
 */
void pllfeed(void) {
    uint32_t        savedInterrupts;

    /* disable interrupts */
    savedInterrupts = VICIntEnable;
     c4c:	e3e01000 	mvn	r1, #0
pllstart_fourtyeightmhz():
/home/kwilson/Projects/gfe2368/liblpc23xx/lpc23xx-pll/lpc23xx-pll.c:191
    while(!PLOCK);

    SET_PLLCE;
    pllfeed();
    pllstat.cclk_mhz = FOURTY_EIGHT_MHZ;
    pllstat.fcco_mhz = FOUR_EIGHTY_MHZ;
     c50:	e3a03572 	mov	r3, #478150656	; 0x1c800000
pllfeed():
/home/kwilson/Projects/gfe2368/liblpc23xx/lpc23xx-pll/lpc23xx-pll.c:65
 */
void pllfeed(void) {
    uint32_t        savedInterrupts;

    /* disable interrupts */
    savedInterrupts = VICIntEnable;
     c54:	e5114fef 	ldr	r4, [r1, #-4079]	; 0xfef
/home/kwilson/Projects/gfe2368/liblpc23xx/lpc23xx-pll/lpc23xx-pll.c:68
    VICIntEnClr     = (unsigned) 0xFFFFFFFF;

    PLLFEED         = FEEDBYTE_A;
     c58:	e3e05055 	mvn	r5, #85	; 0x55
pllstart_fourtyeightmhz():
/home/kwilson/Projects/gfe2368/liblpc23xx/lpc23xx-pll/lpc23xx-pll.c:190

    while(!PLOCK);

    SET_PLLCE;
    pllfeed();
    pllstat.cclk_mhz = FOURTY_EIGHT_MHZ;
     c5c:	e3a0c7b7 	mov	ip, #47972352	; 0x2dc0000
/home/kwilson/Projects/gfe2368/liblpc23xx/lpc23xx-pll/lpc23xx-pll.c:191
    pllstat.fcco_mhz = FOUR_EIGHTY_MHZ;
     c60:	e2833707 	add	r3, r3, #1835008	; 0x1c0000
pllfeed():
/home/kwilson/Projects/gfe2368/liblpc23xx/lpc23xx-pll/lpc23xx-pll.c:66
void pllfeed(void) {
    uint32_t        savedInterrupts;

    /* disable interrupts */
    savedInterrupts = VICIntEnable;
    VICIntEnClr     = (unsigned) 0xFFFFFFFF;
     c64:	e5011feb 	str	r1, [r1, #-4075]	; 0xfeb
pllstart_fourtyeightmhz():
/home/kwilson/Projects/gfe2368/liblpc23xx/lpc23xx-pll/lpc23xx-pll.c:190

    while(!PLOCK);

    SET_PLLCE;
    pllfeed();
    pllstat.cclk_mhz = FOURTY_EIGHT_MHZ;
     c68:	e28ccb1b 	add	ip, ip, #27648	; 0x6c00
pllfeed():
/home/kwilson/Projects/gfe2368/liblpc23xx/lpc23xx-pll/lpc23xx-pll.c:68

    /* disable interrupts */
    savedInterrupts = VICIntEnable;
    VICIntEnClr     = (unsigned) 0xFFFFFFFF;

    PLLFEED         = FEEDBYTE_A;
     c6c:	e5c2508c 	strb	r5, [r2, #140]	; 0x8c
pllstart_fourtyeightmhz():
/home/kwilson/Projects/gfe2368/liblpc23xx/lpc23xx-pll/lpc23xx-pll.c:191
    while(!PLOCK);

    SET_PLLCE;
    pllfeed();
    pllstat.cclk_mhz = FOURTY_EIGHT_MHZ;
    pllstat.fcco_mhz = FOUR_EIGHTY_MHZ;
     c70:	e2833b0e 	add	r3, r3, #14336	; 0x3800
pllfeed():
/home/kwilson/Projects/gfe2368/liblpc23xx/lpc23xx-pll/lpc23xx-pll.c:69
    /* disable interrupts */
    savedInterrupts = VICIntEnable;
    VICIntEnClr     = (unsigned) 0xFFFFFFFF;

    PLLFEED         = FEEDBYTE_A;
    PLLFEED         = FEEDBYTE_B;
     c74:	e3a05055 	mov	r5, #85	; 0x55
     c78:	e5c2508c 	strb	r5, [r2, #140]	; 0x8c
/home/kwilson/Projects/gfe2368/liblpc23xx/lpc23xx-pll/lpc23xx-pll.c:72

    /* restore interrupts */
    VICIntEnable    = savedInterrupts;
     c7c:	e5014fef 	str	r4, [r1, #-4079]	; 0xfef
pllstart_fourtyeightmhz():
/home/kwilson/Projects/gfe2368/liblpc23xx/lpc23xx-pll/lpc23xx-pll.c:190

    while(!PLOCK);

    SET_PLLCE;
    pllfeed();
    pllstat.cclk_mhz = FOURTY_EIGHT_MHZ;
     c80:	e580c000 	str	ip, [r0]
/home/kwilson/Projects/gfe2368/liblpc23xx/lpc23xx-pll/lpc23xx-pll.c:191
    pllstat.fcco_mhz = FOUR_EIGHTY_MHZ;
     c84:	e5803004 	str	r3, [r0, #4]
/home/kwilson/Projects/gfe2368/liblpc23xx/lpc23xx-pll/lpc23xx-pll.c:192
}
     c88:	e8bd0030 	pop	{r4, r5}
     c8c:	e12fff1e 	bx	lr
     c90:	40000438 	.word	0x40000438

00000c94 <uart0_query_baud>:
uart0_query_baud():
/home/kwilson/Projects/gfe2368/liblpc23xx/lpc23xx-uart/lpc23xx-uart.c:45

/*
 * uart0_query_baud
 */
Baud uart0_query_baud(void) {
    return(uart0stat.baudrate);
     c94:	e59f3004 	ldr	r3, [pc, #4]	; ca0 <uart0_query_baud+0xc>
/home/kwilson/Projects/gfe2368/liblpc23xx/lpc23xx-uart/lpc23xx-uart.c:46
}
     c98:	e5930000 	ldr	r0, [r3]
     c9c:	e12fff1e 	bx	lr
     ca0:	40000440 	.word	0x40000440

00000ca4 <uart0_query_charlength>:
uart0_query_charlength():
/home/kwilson/Projects/gfe2368/liblpc23xx/lpc23xx-uart/lpc23xx-uart.c:52

/*
 * uart0_query_charlength
 */
uint8_t uart0_query_charlength(void) {
    return(uart0stat.charlength);
     ca4:	e59f3004 	ldr	r3, [pc, #4]	; cb0 <uart0_query_charlength+0xc>
/home/kwilson/Projects/gfe2368/liblpc23xx/lpc23xx-uart/lpc23xx-uart.c:53
}
     ca8:	e5d30004 	ldrb	r0, [r3, #4]
     cac:	e12fff1e 	bx	lr
     cb0:	40000440 	.word	0x40000440

00000cb4 <uart0_query_stopbits>:
uart0_query_stopbits():
/home/kwilson/Projects/gfe2368/liblpc23xx/lpc23xx-uart/lpc23xx-uart.c:59

/*
 * uart0_query_stopbits
 */
uint8_t uart0_query_stopbits(void) {
    return(uart0stat.stopbits);
     cb4:	e59f3004 	ldr	r3, [pc, #4]	; cc0 <uart0_query_stopbits+0xc>
/home/kwilson/Projects/gfe2368/liblpc23xx/lpc23xx-uart/lpc23xx-uart.c:60
}
     cb8:	e5d30005 	ldrb	r0, [r3, #5]
     cbc:	e12fff1e 	bx	lr
     cc0:	40000440 	.word	0x40000440

00000cc4 <uart0_init_9600>:
uart0_init_9600():
/home/kwilson/Projects/gfe2368/liblpc23xx/lpc23xx-uart/lpc23xx-uart.c:73
    Freq     cclk;

    uart0stat.baudrate = ZERO_H_B;

    // Enable GPIO for TXD/RXD
    SET_RXD0_TXD0;
     cc4:	e3a0220e 	mov	r2, #-536870912	; 0xe0000000
     cc8:	e282290b 	add	r2, r2, #180224	; 0x2c000
     ccc:	e5921000 	ldr	r1, [r2]
/home/kwilson/Projects/gfe2368/liblpc23xx/lpc23xx-uart/lpc23xx-uart.c:66

/*
 * uart_0_init_9600
 * initialize uart0
 */
void uart0_init_9600(void) {
     cd0:	e92d4070 	push	{r4, r5, r6, lr}
/home/kwilson/Projects/gfe2368/liblpc23xx/lpc23xx-uart/lpc23xx-uart.c:73
    Freq     cclk;

    uart0stat.baudrate = ZERO_H_B;

    // Enable GPIO for TXD/RXD
    SET_RXD0_TXD0;
     cd4:	e3c110f0 	bic	r1, r1, #240	; 0xf0
/home/kwilson/Projects/gfe2368/liblpc23xx/lpc23xx-uart/lpc23xx-uart.c:70
 */
void uart0_init_9600(void) {

    Freq     cclk;

    uart0stat.baudrate = ZERO_H_B;
     cd8:	e59f50f8 	ldr	r5, [pc, #248]	; dd8 <uart0_init_9600+0x114>
/home/kwilson/Projects/gfe2368/liblpc23xx/lpc23xx-uart/lpc23xx-uart.c:73

    // Enable GPIO for TXD/RXD
    SET_RXD0_TXD0;
     cdc:	e3811050 	orr	r1, r1, #80	; 0x50
/home/kwilson/Projects/gfe2368/liblpc23xx/lpc23xx-uart/lpc23xx-uart.c:70
 */
void uart0_init_9600(void) {

    Freq     cclk;

    uart0stat.baudrate = ZERO_H_B;
     ce0:	e3a06000 	mov	r6, #0
     ce4:	e5856000 	str	r6, [r5]
/home/kwilson/Projects/gfe2368/liblpc23xx/lpc23xx-uart/lpc23xx-uart.c:76

    // Enable GPIO for TXD/RXD
    SET_RXD0_TXD0;

    // turn on power.
    POWER_ON_UART0;
     ce8:	e3a0320e 	mov	r3, #-536870912	; 0xe0000000
/home/kwilson/Projects/gfe2368/liblpc23xx/lpc23xx-uart/lpc23xx-uart.c:73
    Freq     cclk;

    uart0stat.baudrate = ZERO_H_B;

    // Enable GPIO for TXD/RXD
    SET_RXD0_TXD0;
     cec:	e5821000 	str	r1, [r2]
/home/kwilson/Projects/gfe2368/liblpc23xx/lpc23xx-uart/lpc23xx-uart.c:76

    // turn on power.
    POWER_ON_UART0;
     cf0:	e283397f 	add	r3, r3, #2080768	; 0x1fc000
     cf4:	e59320c4 	ldr	r2, [r3, #196]	; 0xc4
     cf8:	e3822008 	orr	r2, r2, #8
     cfc:	e58320c4 	str	r2, [r3, #196]	; 0xc4
/home/kwilson/Projects/gfe2368/liblpc23xx/lpc23xx-uart/lpc23xx-uart.c:79

    // divide cclk by one
    PCLKSEL0_UART0_DIV1;
     d00:	e59321a8 	ldr	r2, [r3, #424]	; 0x1a8
     d04:	e3c22d11 	bic	r2, r2, #1088	; 0x440
     d08:	e3822040 	orr	r2, r2, #64	; 0x40
     d0c:	e58321a8 	str	r2, [r3, #424]	; 0x1a8
/home/kwilson/Projects/gfe2368/liblpc23xx/lpc23xx-uart/lpc23xx-uart.c:82

    // enable divisor latch access
    SET_DLAB0;
     d10:	e3a0420e 	mov	r4, #-536870912	; 0xe0000000
     d14:	e2844903 	add	r4, r4, #49152	; 0xc000
     d18:	e5d4300c 	ldrb	r3, [r4, #12]
     d1c:	e3833080 	orr	r3, r3, #128	; 0x80
     d20:	e5c4300c 	strb	r3, [r4, #12]
/home/kwilson/Projects/gfe2368/liblpc23xx/lpc23xx-uart/lpc23xx-uart.c:84

    cclk = pllquery_cclk_mhz();
     d24:	ebfffea7 	bl	7c8 <pllquery_cclk_mhz>
/home/kwilson/Projects/gfe2368/liblpc23xx/lpc23xx-uart/lpc23xx-uart.c:86

    switch(cclk) {
     d28:	e3a037e5 	mov	r3, #60030976	; 0x3940000
     d2c:	e2433c79 	sub	r3, r3, #30976	; 0x7900
     d30:	e1500003 	cmp	r0, r3
     d34:	0a000025 	beq	dd0 <uart0_init_9600+0x10c>
     d38:	e3a03511 	mov	r3, #71303168	; 0x4400000
     d3c:	e2833aaa 	add	r3, r3, #696320	; 0xaa000
     d40:	e2833c02 	add	r3, r3, #512	; 0x200
     d44:	e1500003 	cmp	r0, r3
     d48:	0a000019 	beq	db4 <uart0_init_9600+0xf0>
     d4c:	e3a037b7 	mov	r3, #47972352	; 0x2dc0000
     d50:	e2833b1b 	add	r3, r3, #27648	; 0x6c00
     d54:	e1500003 	cmp	r0, r3
     d58:	0a000000 	beq	d60 <uart0_init_9600+0x9c>
     d5c:	eafffffe 	b	d5c <uart0_init_9600+0x98>
/home/kwilson/Projects/gfe2368/liblpc23xx/lpc23xx-uart/lpc23xx-uart.c:88
        case FOURTY_EIGHT_MHZ:
            U0DLL = 208;
     d60:	e3e0302f 	mvn	r3, #47	; 0x2f
     d64:	e5c43000 	strb	r3, [r4]
/home/kwilson/Projects/gfe2368/liblpc23xx/lpc23xx-uart/lpc23xx-uart.c:90
            U0DLM = 0;
            U0FDR = (2<<4) | 1; // MULVAL = 2, DIVADD = 1;
     d68:	e2833051 	add	r3, r3, #81	; 0x51
/home/kwilson/Projects/gfe2368/liblpc23xx/lpc23xx-uart/lpc23xx-uart.c:89
    cclk = pllquery_cclk_mhz();

    switch(cclk) {
        case FOURTY_EIGHT_MHZ:
            U0DLL = 208;
            U0DLM = 0;
     d6c:	e5c46004 	strb	r6, [r4, #4]
/home/kwilson/Projects/gfe2368/liblpc23xx/lpc23xx-uart/lpc23xx-uart.c:90
            U0FDR = (2<<4) | 1; // MULVAL = 2, DIVADD = 1;
     d70:	e5c43028 	strb	r3, [r4, #40]	; 0x28
/home/kwilson/Projects/gfe2368/liblpc23xx/lpc23xx-uart/lpc23xx-uart.c:107
        default:
            while(1);
            break;
    }
    // enable interrupt
    UART0_FCR_ONE_CHAR_EN;
     d74:	e3a0320e 	mov	r3, #-536870912	; 0xe0000000
     d78:	e2833903 	add	r3, r3, #49152	; 0xc000
     d7c:	e3a02007 	mov	r2, #7
     d80:	e5c32008 	strb	r2, [r3, #8]
/home/kwilson/Projects/gfe2368/liblpc23xx/lpc23xx-uart/lpc23xx-uart.c:110

    // set parameters
    UART0_8N1;
     d84:	e3a02003 	mov	r2, #3
     d88:	e5c3200c 	strb	r2, [r3, #12]
/home/kwilson/Projects/gfe2368/liblpc23xx/lpc23xx-uart/lpc23xx-uart.c:112

    uart0stat.charlength = 8;
     d8c:	e2822005 	add	r2, r2, #5
     d90:	e5c52004 	strb	r2, [r5, #4]
/home/kwilson/Projects/gfe2368/liblpc23xx/lpc23xx-uart/lpc23xx-uart.c:113
    uart0stat.stopbits   = 1;
     d94:	e3a02001 	mov	r2, #1
     d98:	e5c52005 	strb	r2, [r5, #5]
/home/kwilson/Projects/gfe2368/liblpc23xx/lpc23xx-uart/lpc23xx-uart.c:115

    CLEAR_DLAB0;
     d9c:	e5d3200c 	ldrb	r2, [r3, #12]
     da0:	e202207f 	and	r2, r2, #127	; 0x7f
     da4:	e5c3200c 	strb	r2, [r3, #12]
/home/kwilson/Projects/gfe2368/liblpc23xx/lpc23xx-uart/lpc23xx-uart.c:117

    uart0stat.baudrate = NINETY_SIX_H_B;
     da8:	e3a03d96 	mov	r3, #9600	; 0x2580
     dac:	e5853000 	str	r3, [r5]
/home/kwilson/Projects/gfe2368/liblpc23xx/lpc23xx-uart/lpc23xx-uart.c:119

}
     db0:	e8bd8070 	pop	{r4, r5, r6, pc}
/home/kwilson/Projects/gfe2368/liblpc23xx/lpc23xx-uart/lpc23xx-uart.c:98
            U0DLL = 4;
            U0DLM = 1;
            U0FDR = (2<<4) | 1; // MULVAL = 2, DIVADD = 1;
            break;
        case SEVENTY_TWO_MHZ:
            U0DLL = 56;
     db4:	e3a03038 	mov	r3, #56	; 0x38
     db8:	e5c43000 	strb	r3, [r4]
/home/kwilson/Projects/gfe2368/liblpc23xx/lpc23xx-uart/lpc23xx-uart.c:99
            U0DLM = 1;
     dbc:	e3a03001 	mov	r3, #1
     dc0:	e5c43004 	strb	r3, [r4, #4]
/home/kwilson/Projects/gfe2368/liblpc23xx/lpc23xx-uart/lpc23xx-uart.c:100
            U0FDR = (2<<4) | 1; // MULVAL = 2, DIVADD = 1;
     dc4:	e2833020 	add	r3, r3, #32
     dc8:	e5c43028 	strb	r3, [r4, #40]	; 0x28
/home/kwilson/Projects/gfe2368/liblpc23xx/lpc23xx-uart/lpc23xx-uart.c:101
            break;
     dcc:	eaffffe8 	b	d74 <uart0_init_9600+0xb0>
/home/kwilson/Projects/gfe2368/liblpc23xx/lpc23xx-uart/lpc23xx-uart.c:93
            U0DLL = 208;
            U0DLM = 0;
            U0FDR = (2<<4) | 1; // MULVAL = 2, DIVADD = 1;
            break;
        case SIXTY_MHZ:
            U0DLL = 4;
     dd0:	e3a03004 	mov	r3, #4
     dd4:	eafffff7 	b	db8 <uart0_init_9600+0xf4>
     dd8:	40000440 	.word	0x40000440

00000ddc <uart0_init_115200>:
uart0_init_115200():
/home/kwilson/Projects/gfe2368/liblpc23xx/lpc23xx-uart/lpc23xx-uart.c:133
    Freq     cclk;

    uart0stat.baudrate = ZERO_H_B;

    // Enable GPIO for TXD/RXD
    SET_RXD0_TXD0;
     ddc:	e3a0220e 	mov	r2, #-536870912	; 0xe0000000
     de0:	e282290b 	add	r2, r2, #180224	; 0x2c000
     de4:	e5921000 	ldr	r1, [r2]
/home/kwilson/Projects/gfe2368/liblpc23xx/lpc23xx-uart/lpc23xx-uart.c:126

/*
 * uart_0_init_115200
 * initialize uart0
 */
void uart0_init_115200(void) {
     de8:	e92d4070 	push	{r4, r5, r6, lr}
/home/kwilson/Projects/gfe2368/liblpc23xx/lpc23xx-uart/lpc23xx-uart.c:133
    Freq     cclk;

    uart0stat.baudrate = ZERO_H_B;

    // Enable GPIO for TXD/RXD
    SET_RXD0_TXD0;
     dec:	e3c110f0 	bic	r1, r1, #240	; 0xf0
/home/kwilson/Projects/gfe2368/liblpc23xx/lpc23xx-uart/lpc23xx-uart.c:130
 */
void uart0_init_115200(void) {

    Freq     cclk;

    uart0stat.baudrate = ZERO_H_B;
     df0:	e59f5108 	ldr	r5, [pc, #264]	; f00 <uart0_init_115200+0x124>
/home/kwilson/Projects/gfe2368/liblpc23xx/lpc23xx-uart/lpc23xx-uart.c:133

    // Enable GPIO for TXD/RXD
    SET_RXD0_TXD0;
     df4:	e3811050 	orr	r1, r1, #80	; 0x50
/home/kwilson/Projects/gfe2368/liblpc23xx/lpc23xx-uart/lpc23xx-uart.c:130
 */
void uart0_init_115200(void) {

    Freq     cclk;

    uart0stat.baudrate = ZERO_H_B;
     df8:	e3a06000 	mov	r6, #0
     dfc:	e5856000 	str	r6, [r5]
/home/kwilson/Projects/gfe2368/liblpc23xx/lpc23xx-uart/lpc23xx-uart.c:136

    // Enable GPIO for TXD/RXD
    SET_RXD0_TXD0;

    // turn on power.
    POWER_ON_UART0;
     e00:	e3a0320e 	mov	r3, #-536870912	; 0xe0000000
/home/kwilson/Projects/gfe2368/liblpc23xx/lpc23xx-uart/lpc23xx-uart.c:133
    Freq     cclk;

    uart0stat.baudrate = ZERO_H_B;

    // Enable GPIO for TXD/RXD
    SET_RXD0_TXD0;
     e04:	e5821000 	str	r1, [r2]
/home/kwilson/Projects/gfe2368/liblpc23xx/lpc23xx-uart/lpc23xx-uart.c:136

    // turn on power.
    POWER_ON_UART0;
     e08:	e283397f 	add	r3, r3, #2080768	; 0x1fc000
     e0c:	e59320c4 	ldr	r2, [r3, #196]	; 0xc4
     e10:	e3822008 	orr	r2, r2, #8
     e14:	e58320c4 	str	r2, [r3, #196]	; 0xc4
/home/kwilson/Projects/gfe2368/liblpc23xx/lpc23xx-uart/lpc23xx-uart.c:139

    // divide cclk by one
    PCLKSEL0_UART0_DIV1;
     e18:	e59321a8 	ldr	r2, [r3, #424]	; 0x1a8
     e1c:	e3c22d11 	bic	r2, r2, #1088	; 0x440
     e20:	e3822040 	orr	r2, r2, #64	; 0x40
     e24:	e58321a8 	str	r2, [r3, #424]	; 0x1a8
/home/kwilson/Projects/gfe2368/liblpc23xx/lpc23xx-uart/lpc23xx-uart.c:142

    // enable divisor latch access
    SET_DLAB0;
     e28:	e3a0420e 	mov	r4, #-536870912	; 0xe0000000
     e2c:	e2844903 	add	r4, r4, #49152	; 0xc000
     e30:	e5d4300c 	ldrb	r3, [r4, #12]
     e34:	e3833080 	orr	r3, r3, #128	; 0x80
     e38:	e5c4300c 	strb	r3, [r4, #12]
/home/kwilson/Projects/gfe2368/liblpc23xx/lpc23xx-uart/lpc23xx-uart.c:144

    cclk = pllquery_cclk_mhz();
     e3c:	ebfffe61 	bl	7c8 <pllquery_cclk_mhz>
/home/kwilson/Projects/gfe2368/liblpc23xx/lpc23xx-uart/lpc23xx-uart.c:146

    switch(cclk) {
     e40:	e3a037e5 	mov	r3, #60030976	; 0x3940000
     e44:	e2433c79 	sub	r3, r3, #30976	; 0x7900
     e48:	e1500003 	cmp	r0, r3
     e4c:	0a000025 	beq	ee8 <uart0_init_115200+0x10c>
     e50:	e3a03511 	mov	r3, #71303168	; 0x4400000
     e54:	e2833aaa 	add	r3, r3, #696320	; 0xaa000
     e58:	e2833c02 	add	r3, r3, #512	; 0x200
     e5c:	e1500003 	cmp	r0, r3
     e60:	0a00001a 	beq	ed0 <uart0_init_115200+0xf4>
     e64:	e3a037b7 	mov	r3, #47972352	; 0x2dc0000
     e68:	e2833b1b 	add	r3, r3, #27648	; 0x6c00
     e6c:	e1500003 	cmp	r0, r3
     e70:	0a000000 	beq	e78 <uart0_init_115200+0x9c>
     e74:	eafffffe 	b	e74 <uart0_init_115200+0x98>
/home/kwilson/Projects/gfe2368/liblpc23xx/lpc23xx-uart/lpc23xx-uart.c:148
        case FOURTY_EIGHT_MHZ:
            U0DLL = 17;
     e78:	e3a03011 	mov	r3, #17
     e7c:	e5c43000 	strb	r3, [r4]
/home/kwilson/Projects/gfe2368/liblpc23xx/lpc23xx-uart/lpc23xx-uart.c:150
            U0DLM = 0;
            U0FDR = (15<<4) | 8; // MULVAL = 15, DIVADD = 8;
     e80:	e3e03007 	mvn	r3, #7
/home/kwilson/Projects/gfe2368/liblpc23xx/lpc23xx-uart/lpc23xx-uart.c:149
    cclk = pllquery_cclk_mhz();

    switch(cclk) {
        case FOURTY_EIGHT_MHZ:
            U0DLL = 17;
            U0DLM = 0;
     e84:	e5c46004 	strb	r6, [r4, #4]
/home/kwilson/Projects/gfe2368/liblpc23xx/lpc23xx-uart/lpc23xx-uart.c:150
            U0FDR = (15<<4) | 8; // MULVAL = 15, DIVADD = 8;
     e88:	e5c43028 	strb	r3, [r4, #40]	; 0x28
/home/kwilson/Projects/gfe2368/liblpc23xx/lpc23xx-uart/lpc23xx-uart.c:167
        default:
            while(1);
            break;
    }
    // enable interrupt
    UART0_FCR_ONE_CHAR_EN;
     e8c:	e3a0320e 	mov	r3, #-536870912	; 0xe0000000
     e90:	e2833903 	add	r3, r3, #49152	; 0xc000
     e94:	e3a02007 	mov	r2, #7
     e98:	e5c32008 	strb	r2, [r3, #8]
/home/kwilson/Projects/gfe2368/liblpc23xx/lpc23xx-uart/lpc23xx-uart.c:170

    // set parameters
    UART0_8N1;
     e9c:	e3a02003 	mov	r2, #3
     ea0:	e5c3200c 	strb	r2, [r3, #12]
/home/kwilson/Projects/gfe2368/liblpc23xx/lpc23xx-uart/lpc23xx-uart.c:172

    uart0stat.charlength = 8;
     ea4:	e2822005 	add	r2, r2, #5
     ea8:	e5c52004 	strb	r2, [r5, #4]
/home/kwilson/Projects/gfe2368/liblpc23xx/lpc23xx-uart/lpc23xx-uart.c:173
    uart0stat.stopbits   = 1;
     eac:	e3a02001 	mov	r2, #1
     eb0:	e5c52005 	strb	r2, [r5, #5]
/home/kwilson/Projects/gfe2368/liblpc23xx/lpc23xx-uart/lpc23xx-uart.c:175

    CLEAR_DLAB0;
     eb4:	e5d3100c 	ldrb	r1, [r3, #12]
/home/kwilson/Projects/gfe2368/liblpc23xx/lpc23xx-uart/lpc23xx-uart.c:178


    uart0stat.baudrate = ONE_FIFTEEN_TWO_H_B;
     eb8:	e3a02907 	mov	r2, #114688	; 0x1c000
/home/kwilson/Projects/gfe2368/liblpc23xx/lpc23xx-uart/lpc23xx-uart.c:175
    UART0_8N1;

    uart0stat.charlength = 8;
    uart0stat.stopbits   = 1;

    CLEAR_DLAB0;
     ebc:	e201107f 	and	r1, r1, #127	; 0x7f
/home/kwilson/Projects/gfe2368/liblpc23xx/lpc23xx-uart/lpc23xx-uart.c:178


    uart0stat.baudrate = ONE_FIFTEEN_TWO_H_B;
     ec0:	e2822c02 	add	r2, r2, #512	; 0x200
/home/kwilson/Projects/gfe2368/liblpc23xx/lpc23xx-uart/lpc23xx-uart.c:175
    UART0_8N1;

    uart0stat.charlength = 8;
    uart0stat.stopbits   = 1;

    CLEAR_DLAB0;
     ec4:	e5c3100c 	strb	r1, [r3, #12]
/home/kwilson/Projects/gfe2368/liblpc23xx/lpc23xx-uart/lpc23xx-uart.c:178


    uart0stat.baudrate = ONE_FIFTEEN_TWO_H_B;
     ec8:	e5852000 	str	r2, [r5]
/home/kwilson/Projects/gfe2368/liblpc23xx/lpc23xx-uart/lpc23xx-uart.c:180

}
     ecc:	e8bd8070 	pop	{r4, r5, r6, pc}
/home/kwilson/Projects/gfe2368/liblpc23xx/lpc23xx-uart/lpc23xx-uart.c:158
            U0DLL = 21;
            U0DLM = 0;
            U0FDR = (11<<4) | 6; // MULVAL = 11, DIVADD = 6;
            break;
        case SEVENTY_TWO_MHZ:
            U0DLL = 26;
     ed0:	e3a0301a 	mov	r3, #26
     ed4:	e5c43000 	strb	r3, [r4]
/home/kwilson/Projects/gfe2368/liblpc23xx/lpc23xx-uart/lpc23xx-uart.c:160
            U0DLM = 0;
            U0FDR = (2<<4) | 1; // MULVAL = 11, DIVADD = 6;
     ed8:	e2833007 	add	r3, r3, #7
/home/kwilson/Projects/gfe2368/liblpc23xx/lpc23xx-uart/lpc23xx-uart.c:159
            U0DLM = 0;
            U0FDR = (11<<4) | 6; // MULVAL = 11, DIVADD = 6;
            break;
        case SEVENTY_TWO_MHZ:
            U0DLL = 26;
            U0DLM = 0;
     edc:	e5c46004 	strb	r6, [r4, #4]
/home/kwilson/Projects/gfe2368/liblpc23xx/lpc23xx-uart/lpc23xx-uart.c:160
            U0FDR = (2<<4) | 1; // MULVAL = 11, DIVADD = 6;
     ee0:	e5c43028 	strb	r3, [r4, #40]	; 0x28
/home/kwilson/Projects/gfe2368/liblpc23xx/lpc23xx-uart/lpc23xx-uart.c:161
            break;
     ee4:	eaffffe8 	b	e8c <uart0_init_115200+0xb0>
/home/kwilson/Projects/gfe2368/liblpc23xx/lpc23xx-uart/lpc23xx-uart.c:153
            U0DLL = 17;
            U0DLM = 0;
            U0FDR = (15<<4) | 8; // MULVAL = 15, DIVADD = 8;
            break;
        case SIXTY_MHZ:
            U0DLL = 21;
     ee8:	e3a03015 	mov	r3, #21
     eec:	e5c43000 	strb	r3, [r4]
/home/kwilson/Projects/gfe2368/liblpc23xx/lpc23xx-uart/lpc23xx-uart.c:155
            U0DLM = 0;
            U0FDR = (11<<4) | 6; // MULVAL = 11, DIVADD = 6;
     ef0:	e3e03049 	mvn	r3, #73	; 0x49
/home/kwilson/Projects/gfe2368/liblpc23xx/lpc23xx-uart/lpc23xx-uart.c:154
            U0DLM = 0;
            U0FDR = (15<<4) | 8; // MULVAL = 15, DIVADD = 8;
            break;
        case SIXTY_MHZ:
            U0DLL = 21;
            U0DLM = 0;
     ef4:	e5c46004 	strb	r6, [r4, #4]
/home/kwilson/Projects/gfe2368/liblpc23xx/lpc23xx-uart/lpc23xx-uart.c:155
            U0FDR = (11<<4) | 6; // MULVAL = 11, DIVADD = 6;
     ef8:	e5c43028 	strb	r3, [r4, #40]	; 0x28
/home/kwilson/Projects/gfe2368/liblpc23xx/lpc23xx-uart/lpc23xx-uart.c:156
            break;
     efc:	eaffffe2 	b	e8c <uart0_init_115200+0xb0>
     f00:	40000440 	.word	0x40000440

00000f04 <uart0_putchar>:
uart0_putchar():
/home/kwilson/Projects/gfe2368/liblpc23xx/lpc23xx-uart/lpc23xx-uart.c:185
}

/*
 * uart0_putchar
 */
void uart0_putchar(char ch) {
     f04:	e20000ff 	and	r0, r0, #255	; 0xff
/home/kwilson/Projects/gfe2368/liblpc23xx/lpc23xx-uart/lpc23xx-uart.c:186
    if (ch == '\n') {
     f08:	e350000a 	cmp	r0, #10
     f0c:	0a000008 	beq	f34 <uart0_putchar+0x30>
/home/kwilson/Projects/gfe2368/liblpc23xx/lpc23xx-uart/lpc23xx-uart.c:190
        while (!(U0THR_EMPTY));
        U0THR = '\r';
    }
    while (!(U0THR_EMPTY));
     f10:	e3a0120e 	mov	r1, #-536870912	; 0xe0000000
     f14:	e2811903 	add	r1, r1, #49152	; 0xc000
     f18:	e5d12014 	ldrb	r2, [r1, #20]
     f1c:	e3a0320e 	mov	r3, #-536870912	; 0xe0000000
     f20:	e3120020 	tst	r2, #32
     f24:	e2833903 	add	r3, r3, #49152	; 0xc000
     f28:	0afffffa 	beq	f18 <uart0_putchar+0x14>
/home/kwilson/Projects/gfe2368/liblpc23xx/lpc23xx-uart/lpc23xx-uart.c:191
    U0THR = ch;
     f2c:	e5c30000 	strb	r0, [r3]
/home/kwilson/Projects/gfe2368/liblpc23xx/lpc23xx-uart/lpc23xx-uart.c:192
}
     f30:	e12fff1e 	bx	lr
/home/kwilson/Projects/gfe2368/liblpc23xx/lpc23xx-uart/lpc23xx-uart.c:187
/*
 * uart0_putchar
 */
void uart0_putchar(char ch) {
    if (ch == '\n') {
        while (!(U0THR_EMPTY));
     f34:	e3a0120e 	mov	r1, #-536870912	; 0xe0000000
     f38:	e2811903 	add	r1, r1, #49152	; 0xc000
     f3c:	e5d12014 	ldrb	r2, [r1, #20]
     f40:	e3a0320e 	mov	r3, #-536870912	; 0xe0000000
     f44:	e3120020 	tst	r2, #32
     f48:	e2833903 	add	r3, r3, #49152	; 0xc000
     f4c:	0afffffa 	beq	f3c <uart0_putchar+0x38>
/home/kwilson/Projects/gfe2368/liblpc23xx/lpc23xx-uart/lpc23xx-uart.c:188
        U0THR = '\r';
     f50:	e3a0200d 	mov	r2, #13
     f54:	e5c32000 	strb	r2, [r3]
     f58:	eaffffec 	b	f10 <uart0_putchar+0xc>

00000f5c <uart0_putstring>:
uart0_putstring():
/home/kwilson/Projects/gfe2368/liblpc23xx/lpc23xx-uart/lpc23xx-uart.c:204
 *
 * Assumes null termination of string.
 */
void uart0_putstring(const char *s) {

    while(*s ) {
     f5c:	e5d01000 	ldrb	r1, [r0]
     f60:	e3510000 	cmp	r1, #0
/home/kwilson/Projects/gfe2368/liblpc23xx/lpc23xx-uart/lpc23xx-uart.c:202
 * -------------------------------------
 * put a string to the serial port
 *
 * Assumes null termination of string.
 */
void uart0_putstring(const char *s) {
     f64:	e52d4004 	push	{r4}		; (str r4, [sp, #-4]!)
/home/kwilson/Projects/gfe2368/liblpc23xx/lpc23xx-uart/lpc23xx-uart.c:204

    while(*s ) {
     f68:	0a00000c 	beq	fa0 <uart0_putstring+0x44>
uart0_putchar():
/home/kwilson/Projects/gfe2368/liblpc23xx/lpc23xx-uart/lpc23xx-uart.c:187
/*
 * uart0_putchar
 */
void uart0_putchar(char ch) {
    if (ch == '\n') {
        while (!(U0THR_EMPTY));
     f6c:	e3a0220e 	mov	r2, #-536870912	; 0xe0000000
     f70:	e2822903 	add	r2, r2, #49152	; 0xc000
     f74:	e1a0c002 	mov	ip, r2
/home/kwilson/Projects/gfe2368/liblpc23xx/lpc23xx-uart/lpc23xx-uart.c:188
        U0THR = '\r';
     f78:	e3a0400d 	mov	r4, #13
/home/kwilson/Projects/gfe2368/liblpc23xx/lpc23xx-uart/lpc23xx-uart.c:186

/*
 * uart0_putchar
 */
void uart0_putchar(char ch) {
    if (ch == '\n') {
     f7c:	e351000a 	cmp	r1, #10
     f80:	0a000008 	beq	fa8 <uart0_putstring+0x4c>
/home/kwilson/Projects/gfe2368/liblpc23xx/lpc23xx-uart/lpc23xx-uart.c:190
        while (!(U0THR_EMPTY));
        U0THR = '\r';
    }
    while (!(U0THR_EMPTY));
     f84:	e5d23014 	ldrb	r3, [r2, #20]
     f88:	e3130020 	tst	r3, #32
     f8c:	0afffffc 	beq	f84 <uart0_putstring+0x28>
/home/kwilson/Projects/gfe2368/liblpc23xx/lpc23xx-uart/lpc23xx-uart.c:191
    U0THR = ch;
     f90:	e5cc1000 	strb	r1, [ip]
uart0_putstring():
/home/kwilson/Projects/gfe2368/liblpc23xx/lpc23xx-uart/lpc23xx-uart.c:204
 *
 * Assumes null termination of string.
 */
void uart0_putstring(const char *s) {

    while(*s ) {
     f94:	e5f01001 	ldrb	r1, [r0, #1]!
     f98:	e3510000 	cmp	r1, #0
     f9c:	1afffff6 	bne	f7c <uart0_putstring+0x20>
/home/kwilson/Projects/gfe2368/liblpc23xx/lpc23xx-uart/lpc23xx-uart.c:207
        uart0_putchar(*s++); // put the char
    }
}
     fa0:	e8bd0010 	pop	{r4}
     fa4:	e12fff1e 	bx	lr
uart0_putchar():
/home/kwilson/Projects/gfe2368/liblpc23xx/lpc23xx-uart/lpc23xx-uart.c:187
/*
 * uart0_putchar
 */
void uart0_putchar(char ch) {
    if (ch == '\n') {
        while (!(U0THR_EMPTY));
     fa8:	e5d23014 	ldrb	r3, [r2, #20]
     fac:	e3130020 	tst	r3, #32
     fb0:	0afffffc 	beq	fa8 <uart0_putstring+0x4c>
/home/kwilson/Projects/gfe2368/liblpc23xx/lpc23xx-uart/lpc23xx-uart.c:188
        U0THR = '\r';
     fb4:	e5cc4000 	strb	r4, [ip]
     fb8:	eafffff1 	b	f84 <uart0_putstring+0x28>

00000fbc <uart0_getchar>:
uart0_getchar():
/home/kwilson/Projects/gfe2368/liblpc23xx/lpc23xx-uart/lpc23xx-uart.c:215
/*
 * uart0_getchar
 */
char uart0_getchar (void)  {

    while (!U0RDR_READY);
     fbc:	e3a0120e 	mov	r1, #-536870912	; 0xe0000000
     fc0:	e2811903 	add	r1, r1, #49152	; 0xc000
     fc4:	e5d12014 	ldrb	r2, [r1, #20]
     fc8:	e3a0320e 	mov	r3, #-536870912	; 0xe0000000
     fcc:	e3120001 	tst	r2, #1
     fd0:	e2833903 	add	r3, r3, #49152	; 0xc000
     fd4:	0afffffa 	beq	fc4 <uart0_getchar+0x8>
/home/kwilson/Projects/gfe2368/liblpc23xx/lpc23xx-uart/lpc23xx-uart.c:217

    return (U0RBR);
     fd8:	e5d30000 	ldrb	r0, [r3]
/home/kwilson/Projects/gfe2368/liblpc23xx/lpc23xx-uart/lpc23xx-uart.c:218
}
     fdc:	e12fff1e 	bx	lr

00000fe0 <uart0_getstring>:
/home/kwilson/Projects/gfe2368/liblpc23xx/lpc23xx-uart/lpc23xx-uart.c:215
/*
 * uart0_getchar
 */
char uart0_getchar (void)  {

    while (!U0RDR_READY);
     fe0:	e3a0220e 	mov	r2, #-536870912	; 0xe0000000
     fe4:	e59f004c 	ldr	r0, [pc, #76]	; 1038 <uart0_getstring+0x58>
uart0_getstring():
/home/kwilson/Projects/gfe2368/liblpc23xx/lpc23xx-uart/lpc23xx-uart.c:233
char* uart0_getstring (void) {

    static char uart0_linebuffer[UART_MAXBUFFER] ;

    char    current = ' ';
    uint32_t   index   = 0;
     fe8:	e3a01000 	mov	r1, #0
uart0_getchar():
/home/kwilson/Projects/gfe2368/liblpc23xx/lpc23xx-uart/lpc23xx-uart.c:215
/*
 * uart0_getchar
 */
char uart0_getchar (void)  {

    while (!U0RDR_READY);
     fec:	e2822903 	add	r2, r2, #49152	; 0xc000
     ff0:	e5d23014 	ldrb	r3, [r2, #20]
     ff4:	e3130001 	tst	r3, #1
     ff8:	0afffffc 	beq	ff0 <uart0_getstring+0x10>
/home/kwilson/Projects/gfe2368/liblpc23xx/lpc23xx-uart/lpc23xx-uart.c:217

    return (U0RBR);
     ffc:	e5d23000 	ldrb	r3, [r2]
    1000:	e20330ff 	and	r3, r3, #255	; 0xff
uart0_getstring():
/home/kwilson/Projects/gfe2368/liblpc23xx/lpc23xx-uart/lpc23xx-uart.c:235
    static char uart0_linebuffer[UART_MAXBUFFER] ;

    char    current = ' ';
    uint32_t   index   = 0;

    while((current != '\n' && current != '\r') && index < UART_MAXBUFFER-1) {
    1004:	e353000d 	cmp	r3, #13
    1008:	1353000a 	cmpne	r3, #10
/home/kwilson/Projects/gfe2368/liblpc23xx/lpc23xx-uart/lpc23xx-uart.c:237
        current                 = uart0_getchar();
        uart0_linebuffer[index] = current;
    100c:	e7c03001 	strb	r3, [r0, r1]
/home/kwilson/Projects/gfe2368/liblpc23xx/lpc23xx-uart/lpc23xx-uart.c:238
        ++index;
    1010:	e2811001 	add	r1, r1, #1
/home/kwilson/Projects/gfe2368/liblpc23xx/lpc23xx-uart/lpc23xx-uart.c:235
    static char uart0_linebuffer[UART_MAXBUFFER] ;

    char    current = ' ';
    uint32_t   index   = 0;

    while((current != '\n' && current != '\r') && index < UART_MAXBUFFER-1) {
    1014:	0a000001 	beq	1020 <uart0_getstring+0x40>
    1018:	e3510078 	cmp	r1, #120	; 0x78
    101c:	1afffff3 	bne	ff0 <uart0_getstring+0x10>
/home/kwilson/Projects/gfe2368/liblpc23xx/lpc23xx-uart/lpc23xx-uart.c:240
        current                 = uart0_getchar();
        uart0_linebuffer[index] = current;
        ++index;
    }
    uart0_linebuffer[index]     = '\0';
    1020:	e59f0014 	ldr	r0, [pc, #20]	; 103c <uart0_getstring+0x5c>
    1024:	e3a03000 	mov	r3, #0
    1028:	e0801001 	add	r1, r0, r1
    102c:	e5c13008 	strb	r3, [r1, #8]
/home/kwilson/Projects/gfe2368/liblpc23xx/lpc23xx-uart/lpc23xx-uart.c:243

    return(uart0_linebuffer);
}
    1030:	e2800008 	add	r0, r0, #8
    1034:	e12fff1e 	bx	lr
    1038:	40000448 	.word	0x40000448
    103c:	40000440 	.word	0x40000440

00001040 <util_getbitval>:
util_getbitval():
/home/kwilson/Projects/gfe2368/liblpc23xx/lpc23xx-util/lpc23xx-util.c:50

/*
 * util_getbitval
 */
inline uint32_t util_getbitval(uint32_t val, uint32_t bitnumber) {
    return ( (val & (1<<bitnumber)) >> bitnumber );
    1040:	e3a03001 	mov	r3, #1
    1044:	e0000113 	and	r0, r0, r3, lsl r1
/home/kwilson/Projects/gfe2368/liblpc23xx/lpc23xx-util/lpc23xx-util.c:51
}
    1048:	e1a00130 	lsr	r0, r0, r1
    104c:	e12fff1e 	bx	lr

00001050 <util_cpsrstat>:
util_cpsrstat():
/home/kwilson/Projects/gfe2368/liblpc23xx/lpc23xx-util/lpc23xx-util.c:56

/*
 * cpsr_stat
 */
void util_cpsrstat(uint32_t cpsrval) {
    1050:	e92d4030 	push	{r4, r5, lr}
/home/kwilson/Projects/gfe2368/liblpc23xx/lpc23xx-util/lpc23xx-util.c:76
    c_carry     = util_getbitval(cpsrval,CCARRY_BIT);
    z_zero      = util_getbitval(cpsrval,ZZERO_BIT);
    n_negative  = util_getbitval(cpsrval,NNEGLT_BIT);
    t_thumbmode = util_getbitval(cpsrval,T_BIT);

    printf_lpc(UART0,"\n*** cpsr decode start ***\n");
    1054:	e59f11a0 	ldr	r1, [pc, #416]	; 11fc <util_cpsrstat+0x1ac>
/home/kwilson/Projects/gfe2368/liblpc23xx/lpc23xx-util/lpc23xx-util.c:56
}

/*
 * cpsr_stat
 */
void util_cpsrstat(uint32_t cpsrval) {
    1058:	e1a04000 	mov	r4, r0
/home/kwilson/Projects/gfe2368/liblpc23xx/lpc23xx-util/lpc23xx-util.c:76
    c_carry     = util_getbitval(cpsrval,CCARRY_BIT);
    z_zero      = util_getbitval(cpsrval,ZZERO_BIT);
    n_negative  = util_getbitval(cpsrval,NNEGLT_BIT);
    t_thumbmode = util_getbitval(cpsrval,T_BIT);

    printf_lpc(UART0,"\n*** cpsr decode start ***\n");
    105c:	e3a00000 	mov	r0, #0
    1060:	eb0001dc 	bl	17d8 <printf_lpc>
/home/kwilson/Projects/gfe2368/liblpc23xx/lpc23xx-util/lpc23xx-util.c:78

    printf_lpc(UART0,"Decoding cpsr: 0b%b\n",cpsrval);
    1064:	e1a02004 	mov	r2, r4
    1068:	e3a00000 	mov	r0, #0
    106c:	e59f118c 	ldr	r1, [pc, #396]	; 1200 <util_cpsrstat+0x1b0>
    1070:	eb0001d8 	bl	17d8 <printf_lpc>
util_getbitval():
/home/kwilson/Projects/gfe2368/liblpc23xx/lpc23xx-util/lpc23xx-util.c:50

/*
 * util_getbitval
 */
inline uint32_t util_getbitval(uint32_t val, uint32_t bitnumber) {
    return ( (val & (1<<bitnumber)) >> bitnumber );
    1074:	e2042201 	and	r2, r4, #268435456	; 0x10000000
util_cpsrstat():
/home/kwilson/Projects/gfe2368/liblpc23xx/lpc23xx-util/lpc23xx-util.c:80

    printf_lpc(UART0,"\n*** cpsr decode start ***\n");

    printf_lpc(UART0,"Decoding cpsr: 0b%b\n",cpsrval);

    printf_lpc(UART0,"v_overflow:\t\t%d.\n", v_overflow);
    1078:	e3a00000 	mov	r0, #0
    107c:	e59f1180 	ldr	r1, [pc, #384]	; 1204 <util_cpsrstat+0x1b4>
    1080:	e1a02e22 	lsr	r2, r2, #28
    1084:	eb0001d3 	bl	17d8 <printf_lpc>
util_getbitval():
/home/kwilson/Projects/gfe2368/liblpc23xx/lpc23xx-util/lpc23xx-util.c:50

/*
 * util_getbitval
 */
inline uint32_t util_getbitval(uint32_t val, uint32_t bitnumber) {
    return ( (val & (1<<bitnumber)) >> bitnumber );
    1088:	e2042202 	and	r2, r4, #536870912	; 0x20000000
util_cpsrstat():
/home/kwilson/Projects/gfe2368/liblpc23xx/lpc23xx-util/lpc23xx-util.c:81
    printf_lpc(UART0,"\n*** cpsr decode start ***\n");

    printf_lpc(UART0,"Decoding cpsr: 0b%b\n",cpsrval);

    printf_lpc(UART0,"v_overflow:\t\t%d.\n", v_overflow);
    printf_lpc(UART0,"c_carry:\t\t%d.\n",    c_carry);
    108c:	e3a00000 	mov	r0, #0
    1090:	e59f1170 	ldr	r1, [pc, #368]	; 1208 <util_cpsrstat+0x1b8>
    1094:	e1a02ea2 	lsr	r2, r2, #29
    1098:	eb0001ce 	bl	17d8 <printf_lpc>
util_getbitval():
/home/kwilson/Projects/gfe2368/liblpc23xx/lpc23xx-util/lpc23xx-util.c:50

/*
 * util_getbitval
 */
inline uint32_t util_getbitval(uint32_t val, uint32_t bitnumber) {
    return ( (val & (1<<bitnumber)) >> bitnumber );
    109c:	e2042101 	and	r2, r4, #1073741824	; 0x40000000
util_cpsrstat():
/home/kwilson/Projects/gfe2368/liblpc23xx/lpc23xx-util/lpc23xx-util.c:82

    printf_lpc(UART0,"Decoding cpsr: 0b%b\n",cpsrval);

    printf_lpc(UART0,"v_overflow:\t\t%d.\n", v_overflow);
    printf_lpc(UART0,"c_carry:\t\t%d.\n",    c_carry);
    printf_lpc(UART0,"z_zero:\t\t\t%d.\n",     z_zero);
    10a0:	e3a00000 	mov	r0, #0
    10a4:	e59f1160 	ldr	r1, [pc, #352]	; 120c <util_cpsrstat+0x1bc>
    10a8:	e1a02f22 	lsr	r2, r2, #30
    10ac:	eb0001c9 	bl	17d8 <printf_lpc>
/home/kwilson/Projects/gfe2368/liblpc23xx/lpc23xx-util/lpc23xx-util.c:83
    printf_lpc(UART0,"n_negative:\t\t%d.\n", n_negative);
    10b0:	e1a02fa4 	lsr	r2, r4, #31
    10b4:	e3a00000 	mov	r0, #0
    10b8:	e59f1150 	ldr	r1, [pc, #336]	; 1210 <util_cpsrstat+0x1c0>
    10bc:	eb0001c5 	bl	17d8 <printf_lpc>
util_getbitval():
/home/kwilson/Projects/gfe2368/liblpc23xx/lpc23xx-util/lpc23xx-util.c:50

/*
 * util_getbitval
 */
inline uint32_t util_getbitval(uint32_t val, uint32_t bitnumber) {
    return ( (val & (1<<bitnumber)) >> bitnumber );
    10c0:	e2042020 	and	r2, r4, #32
util_cpsrstat():
/home/kwilson/Projects/gfe2368/liblpc23xx/lpc23xx-util/lpc23xx-util.c:84

    printf_lpc(UART0,"v_overflow:\t\t%d.\n", v_overflow);
    printf_lpc(UART0,"c_carry:\t\t%d.\n",    c_carry);
    printf_lpc(UART0,"z_zero:\t\t\t%d.\n",     z_zero);
    printf_lpc(UART0,"n_negative:\t\t%d.\n", n_negative);
    printf_lpc(UART0,"t_thumbmode:\t\t%d.\n", t_thumbmode);
    10c4:	e1a022a2 	lsr	r2, r2, #5
    10c8:	e3a00000 	mov	r0, #0
    10cc:	e59f1140 	ldr	r1, [pc, #320]	; 1214 <util_cpsrstat+0x1c4>
    10d0:	eb0001c0 	bl	17d8 <printf_lpc>
util_getbitval():
/home/kwilson/Projects/gfe2368/liblpc23xx/lpc23xx-util/lpc23xx-util.c:50

/*
 * util_getbitval
 */
inline uint32_t util_getbitval(uint32_t val, uint32_t bitnumber) {
    return ( (val & (1<<bitnumber)) >> bitnumber );
    10d4:	e2042080 	and	r2, r4, #128	; 0x80
    10d8:	e1a023a2 	lsr	r2, r2, #7
    10dc:	e2045040 	and	r5, r4, #64	; 0x40
util_cpsrstat():
/home/kwilson/Projects/gfe2368/liblpc23xx/lpc23xx-util/lpc23xx-util.c:86
    printf_lpc(UART0,"c_carry:\t\t%d.\n",    c_carry);
    printf_lpc(UART0,"z_zero:\t\t\t%d.\n",     z_zero);
    printf_lpc(UART0,"n_negative:\t\t%d.\n", n_negative);
    printf_lpc(UART0,"t_thumbmode:\t\t%d.\n", t_thumbmode);

    if(irq == 1) {
    10e0:	e3520001 	cmp	r2, #1
util_getbitval():
/home/kwilson/Projects/gfe2368/liblpc23xx/lpc23xx-util/lpc23xx-util.c:50

/*
 * util_getbitval
 */
inline uint32_t util_getbitval(uint32_t val, uint32_t bitnumber) {
    return ( (val & (1<<bitnumber)) >> bitnumber );
    10e4:	e1a05325 	lsr	r5, r5, #6
util_cpsrstat():
/home/kwilson/Projects/gfe2368/liblpc23xx/lpc23xx-util/lpc23xx-util.c:69
    uint32_t     t_thumbmode;

    irq         = util_getbitval(cpsrval,IRQ_BIT);
    fiq         = util_getbitval(cpsrval,FIQ_BIT);

    mode        = (cpsrval & 0x1F);
    10e8:	e204401f 	and	r4, r4, #31
/home/kwilson/Projects/gfe2368/liblpc23xx/lpc23xx-util/lpc23xx-util.c:86
    printf_lpc(UART0,"c_carry:\t\t%d.\n",    c_carry);
    printf_lpc(UART0,"z_zero:\t\t\t%d.\n",     z_zero);
    printf_lpc(UART0,"n_negative:\t\t%d.\n", n_negative);
    printf_lpc(UART0,"t_thumbmode:\t\t%d.\n", t_thumbmode);

    if(irq == 1) {
    10ec:	0a00003e 	beq	11ec <util_cpsrstat+0x19c>
/home/kwilson/Projects/gfe2368/liblpc23xx/lpc23xx-util/lpc23xx-util.c:89
        printf_lpc(UART0,"IRQ:\t\t\t%d (disabled).\n", irq);
    } else {
        printf_lpc(UART0,"IRQ:\t\t\t%d (enabled).\n", irq);
    10f0:	e3a00000 	mov	r0, #0
    10f4:	e59f111c 	ldr	r1, [pc, #284]	; 1218 <util_cpsrstat+0x1c8>
    10f8:	e1a02000 	mov	r2, r0
    10fc:	eb0001b5 	bl	17d8 <printf_lpc>
/home/kwilson/Projects/gfe2368/liblpc23xx/lpc23xx-util/lpc23xx-util.c:91
    }
    if(fiq == 1) {
    1100:	e3550001 	cmp	r5, #1
    1104:	0a000033 	beq	11d8 <util_cpsrstat+0x188>
/home/kwilson/Projects/gfe2368/liblpc23xx/lpc23xx-util/lpc23xx-util.c:94
        printf_lpc(UART0,"FIQ:\t\t\t%d (disabled).\n", fiq);
    } else {
        printf_lpc(UART0,"FIQ:\t\t\t%d (enabled).\n", fiq);
    1108:	e3a00000 	mov	r0, #0
    110c:	e59f1108 	ldr	r1, [pc, #264]	; 121c <util_cpsrstat+0x1cc>
    1110:	e1a02000 	mov	r2, r0
    1114:	eb0001af 	bl	17d8 <printf_lpc>
/home/kwilson/Projects/gfe2368/liblpc23xx/lpc23xx-util/lpc23xx-util.c:96
    }
    printf_lpc(UART0,"Mode:\n");
    1118:	e3a00000 	mov	r0, #0
    111c:	e59f10fc 	ldr	r1, [pc, #252]	; 1220 <util_cpsrstat+0x1d0>
    1120:	eb0001ac 	bl	17d8 <printf_lpc>
/home/kwilson/Projects/gfe2368/liblpc23xx/lpc23xx-util/lpc23xx-util.c:97
    switch(mode) {
    1124:	e2443013 	sub	r3, r4, #19
    1128:	e353000c 	cmp	r3, #12
    112c:	979ff103 	ldrls	pc, [pc, r3, lsl #2]
    1130:	ea000023 	b	11c4 <util_cpsrstat+0x174>
    1134:	000011b0 	.word	0x000011b0
    1138:	000011c4 	.word	0x000011c4
    113c:	000011c4 	.word	0x000011c4
    1140:	000011c4 	.word	0x000011c4
    1144:	0000119c 	.word	0x0000119c
    1148:	000011c4 	.word	0x000011c4
    114c:	000011c4 	.word	0x000011c4
    1150:	000011c4 	.word	0x000011c4
    1154:	00001188 	.word	0x00001188
    1158:	000011c4 	.word	0x000011c4
    115c:	000011c4 	.word	0x000011c4
    1160:	000011c4 	.word	0x000011c4
    1164:	00001168 	.word	0x00001168
/home/kwilson/Projects/gfe2368/liblpc23xx/lpc23xx-util/lpc23xx-util.c:108
            break;
        case 0x1b:
            printf_lpc(UART0,"  Undefined Mode:\t0x%x\n", mode);
            break;
        case 0x1f:
            printf_lpc(UART0,"  System Mode:\t0x%x\n", mode);
    1168:	e3a00000 	mov	r0, #0
    116c:	e59f10b0 	ldr	r1, [pc, #176]	; 1224 <util_cpsrstat+0x1d4>
    1170:	e3a0201f 	mov	r2, #31
    1174:	eb000197 	bl	17d8 <printf_lpc>
/home/kwilson/Projects/gfe2368/liblpc23xx/lpc23xx-util/lpc23xx-util.c:114
            break;
        default:
            printf_lpc(UART0,"  Unknown Mode:\t0x%x\n", mode);
            break;
    }
    printf_lpc(UART0,"\n*** cpsr decode end ***\n");
    1178:	e59f10a8 	ldr	r1, [pc, #168]	; 1228 <util_cpsrstat+0x1d8>
    117c:	e3a00000 	mov	r0, #0
/home/kwilson/Projects/gfe2368/liblpc23xx/lpc23xx-util/lpc23xx-util.c:116

}
    1180:	e8bd4030 	pop	{r4, r5, lr}
/home/kwilson/Projects/gfe2368/liblpc23xx/lpc23xx-util/lpc23xx-util.c:114
            break;
        default:
            printf_lpc(UART0,"  Unknown Mode:\t0x%x\n", mode);
            break;
    }
    printf_lpc(UART0,"\n*** cpsr decode end ***\n");
    1184:	ea000193 	b	17d8 <printf_lpc>
/home/kwilson/Projects/gfe2368/liblpc23xx/lpc23xx-util/lpc23xx-util.c:105
            break;
        case 0x17:
            printf_lpc(UART0,"  Abort Mode:\t0x%x\n", mode);
            break;
        case 0x1b:
            printf_lpc(UART0,"  Undefined Mode:\t0x%x\n", mode);
    1188:	e3a00000 	mov	r0, #0
    118c:	e59f1098 	ldr	r1, [pc, #152]	; 122c <util_cpsrstat+0x1dc>
    1190:	e3a0201b 	mov	r2, #27
    1194:	eb00018f 	bl	17d8 <printf_lpc>
/home/kwilson/Projects/gfe2368/liblpc23xx/lpc23xx-util/lpc23xx-util.c:106
            break;
    1198:	eafffff6 	b	1178 <util_cpsrstat+0x128>
/home/kwilson/Projects/gfe2368/liblpc23xx/lpc23xx-util/lpc23xx-util.c:102
    switch(mode) {
        case 0x13:
            printf_lpc(UART0,"  Supervisor Mode:\t0x%x\n", mode);
            break;
        case 0x17:
            printf_lpc(UART0,"  Abort Mode:\t0x%x\n", mode);
    119c:	e3a00000 	mov	r0, #0
    11a0:	e59f1088 	ldr	r1, [pc, #136]	; 1230 <util_cpsrstat+0x1e0>
    11a4:	e3a02017 	mov	r2, #23
    11a8:	eb00018a 	bl	17d8 <printf_lpc>
/home/kwilson/Projects/gfe2368/liblpc23xx/lpc23xx-util/lpc23xx-util.c:103
            break;
    11ac:	eafffff1 	b	1178 <util_cpsrstat+0x128>
/home/kwilson/Projects/gfe2368/liblpc23xx/lpc23xx-util/lpc23xx-util.c:99
        printf_lpc(UART0,"FIQ:\t\t\t%d (enabled).\n", fiq);
    }
    printf_lpc(UART0,"Mode:\n");
    switch(mode) {
        case 0x13:
            printf_lpc(UART0,"  Supervisor Mode:\t0x%x\n", mode);
    11b0:	e3a00000 	mov	r0, #0
    11b4:	e59f1078 	ldr	r1, [pc, #120]	; 1234 <util_cpsrstat+0x1e4>
    11b8:	e3a02013 	mov	r2, #19
    11bc:	eb000185 	bl	17d8 <printf_lpc>
/home/kwilson/Projects/gfe2368/liblpc23xx/lpc23xx-util/lpc23xx-util.c:100
            break;
    11c0:	eaffffec 	b	1178 <util_cpsrstat+0x128>
/home/kwilson/Projects/gfe2368/liblpc23xx/lpc23xx-util/lpc23xx-util.c:111
            break;
        case 0x1f:
            printf_lpc(UART0,"  System Mode:\t0x%x\n", mode);
            break;
        default:
            printf_lpc(UART0,"  Unknown Mode:\t0x%x\n", mode);
    11c4:	e3a00000 	mov	r0, #0
    11c8:	e59f1068 	ldr	r1, [pc, #104]	; 1238 <util_cpsrstat+0x1e8>
    11cc:	e1a02004 	mov	r2, r4
    11d0:	eb000180 	bl	17d8 <printf_lpc>
/home/kwilson/Projects/gfe2368/liblpc23xx/lpc23xx-util/lpc23xx-util.c:112
            break;
    11d4:	eaffffe7 	b	1178 <util_cpsrstat+0x128>
/home/kwilson/Projects/gfe2368/liblpc23xx/lpc23xx-util/lpc23xx-util.c:92
        printf_lpc(UART0,"IRQ:\t\t\t%d (disabled).\n", irq);
    } else {
        printf_lpc(UART0,"IRQ:\t\t\t%d (enabled).\n", irq);
    }
    if(fiq == 1) {
        printf_lpc(UART0,"FIQ:\t\t\t%d (disabled).\n", fiq);
    11d8:	e3a00000 	mov	r0, #0
    11dc:	e59f1058 	ldr	r1, [pc, #88]	; 123c <util_cpsrstat+0x1ec>
    11e0:	e1a02005 	mov	r2, r5
    11e4:	eb00017b 	bl	17d8 <printf_lpc>
    11e8:	eaffffca 	b	1118 <util_cpsrstat+0xc8>
/home/kwilson/Projects/gfe2368/liblpc23xx/lpc23xx-util/lpc23xx-util.c:87
    printf_lpc(UART0,"z_zero:\t\t\t%d.\n",     z_zero);
    printf_lpc(UART0,"n_negative:\t\t%d.\n", n_negative);
    printf_lpc(UART0,"t_thumbmode:\t\t%d.\n", t_thumbmode);

    if(irq == 1) {
        printf_lpc(UART0,"IRQ:\t\t\t%d (disabled).\n", irq);
    11ec:	e3a00000 	mov	r0, #0
    11f0:	e59f1048 	ldr	r1, [pc, #72]	; 1240 <util_cpsrstat+0x1f0>
    11f4:	eb000177 	bl	17d8 <printf_lpc>
    11f8:	eaffffc0 	b	1100 <util_cpsrstat+0xb0>
    11fc:	00001b98 	.word	0x00001b98
    1200:	00001bb4 	.word	0x00001bb4
    1204:	00001bcc 	.word	0x00001bcc
    1208:	00001be0 	.word	0x00001be0
    120c:	00001bf0 	.word	0x00001bf0
    1210:	00001c00 	.word	0x00001c00
    1214:	00001c14 	.word	0x00001c14
    1218:	00001c40 	.word	0x00001c40
    121c:	00001c70 	.word	0x00001c70
    1220:	00001c88 	.word	0x00001c88
    1224:	00001cd8 	.word	0x00001cd8
    1228:	00001d08 	.word	0x00001d08
    122c:	00001cc0 	.word	0x00001cc0
    1230:	00001cac 	.word	0x00001cac
    1234:	00001c90 	.word	0x00001c90
    1238:	00001cf0 	.word	0x00001cf0
    123c:	00001c58 	.word	0x00001c58
    1240:	00001c28 	.word	0x00001c28

00001244 <microsecondsToCPUTicks>:
microsecondsToCPUTicks():
/home/kwilson/Projects/gfe2368/liblpc23xx/lpc23xx-util/lpc23xx-util.c:122


/*
 * microsecondsToCPUTicks
 */
uint32_t microsecondsToCPUTicks(const uint32_t microseconds) {
    1244:	e92d4010 	push	{r4, lr}
    1248:	e1a04000 	mov	r4, r0
/home/kwilson/Projects/gfe2368/liblpc23xx/lpc23xx-util/lpc23xx-util.c:123
    uint32_t ret = ( pllquery_cclk_mhz() / 1000000) * microseconds;
    124c:	ebfffd5d 	bl	7c8 <pllquery_cclk_mhz>
    1250:	e59f300c 	ldr	r3, [pc, #12]	; 1264 <microsecondsToCPUTicks+0x20>
    1254:	e0802093 	umull	r2, r0, r3, r0
    1258:	e1a00920 	lsr	r0, r0, #18
/home/kwilson/Projects/gfe2368/liblpc23xx/lpc23xx-util/lpc23xx-util.c:125
    return(ret);
}
    125c:	e0000094 	mul	r0, r4, r0
    1260:	e8bd8010 	pop	{r4, pc}
    1264:	431bde83 	.word	0x431bde83

00001268 <millisecondsToCPUTicks>:
millisecondsToCPUTicks():
/home/kwilson/Projects/gfe2368/liblpc23xx/lpc23xx-util/lpc23xx-util.c:130

/*
 * millisecondsToCPUTicks
 */
uint32_t millisecondsToCPUTicks(const uint32_t milliseconds) {
    1268:	e92d4010 	push	{r4, lr}
    126c:	e1a04000 	mov	r4, r0
/home/kwilson/Projects/gfe2368/liblpc23xx/lpc23xx-util/lpc23xx-util.c:131
    uint32_t ret = (pllquery_cclk_mhz() / 1000) * milliseconds;
    1270:	ebfffd54 	bl	7c8 <pllquery_cclk_mhz>
    1274:	e59f300c 	ldr	r3, [pc, #12]	; 1288 <millisecondsToCPUTicks+0x20>
    1278:	e0802093 	umull	r2, r0, r3, r0
    127c:	e1a00320 	lsr	r0, r0, #6
/home/kwilson/Projects/gfe2368/liblpc23xx/lpc23xx-util/lpc23xx-util.c:133
    return(ret);
}
    1280:	e0000094 	mul	r0, r4, r0
    1284:	e8bd8010 	pop	{r4, pc}
    1288:	10624dd3 	.word	0x10624dd3

0000128c <util_itoa>:
util_itoa():
/home/kwilson/Projects/gfe2368/liblpc23xx/lpc23xx-util/lpc23xx-util.c:139

/*
 * util_itoa
 * convert a signed int to a string...
 */
char* util_itoa(int32_t val, uint32_t base) {
    128c:	e92d45f0 	push	{r4, r5, r6, r7, r8, sl, lr}
/home/kwilson/Projects/gfe2368/liblpc23xx/lpc23xx-util/lpc23xx-util.c:146
    static char ibuf[MAX_I2ASTRING];

    int         i     = MAX_I2ASTRING-2;
    int         minus = 0;

    memset(ibuf,'\0',MAX_I2ASTRING);
    1290:	e59f70cc 	ldr	r7, [pc, #204]	; 1364 <util_itoa+0xd8>
    1294:	e3a02000 	mov	r2, #0
    1298:	e2873008 	add	r3, r7, #8
    129c:	e5832000 	str	r2, [r3]
    12a0:	e287300c 	add	r3, r7, #12
    12a4:	e5832000 	str	r2, [r3]
    12a8:	e2873010 	add	r3, r7, #16
    12ac:	e5832000 	str	r2, [r3]
    12b0:	e2873014 	add	r3, r7, #20
    12b4:	e5832000 	str	r2, [r3]
    12b8:	e2873018 	add	r3, r7, #24
    12bc:	e5832000 	str	r2, [r3]
    12c0:	e287301c 	add	r3, r7, #28
    12c4:	e5832000 	str	r2, [r3]
/home/kwilson/Projects/gfe2368/liblpc23xx/lpc23xx-util/lpc23xx-util.c:148

    if(val < 0) {
    12c8:	e2504000 	subs	r4, r0, #0
/home/kwilson/Projects/gfe2368/liblpc23xx/lpc23xx-util/lpc23xx-util.c:146
    static char ibuf[MAX_I2ASTRING];

    int         i     = MAX_I2ASTRING-2;
    int         minus = 0;

    memset(ibuf,'\0',MAX_I2ASTRING);
    12cc:	e2873020 	add	r3, r7, #32
/home/kwilson/Projects/gfe2368/liblpc23xx/lpc23xx-util/lpc23xx-util.c:139

/*
 * util_itoa
 * convert a signed int to a string...
 */
char* util_itoa(int32_t val, uint32_t base) {
    12d0:	e1a06001 	mov	r6, r1
/home/kwilson/Projects/gfe2368/liblpc23xx/lpc23xx-util/lpc23xx-util.c:146
    static char ibuf[MAX_I2ASTRING];

    int         i     = MAX_I2ASTRING-2;
    int         minus = 0;

    memset(ibuf,'\0',MAX_I2ASTRING);
    12d4:	e5872000 	str	r2, [r7]
    12d8:	e5872004 	str	r2, [r7, #4]
    12dc:	e5c32000 	strb	r2, [r3]
/home/kwilson/Projects/gfe2368/liblpc23xx/lpc23xx-util/lpc23xx-util.c:148

    if(val < 0) {
    12e0:	ba00001a 	blt	1350 <util_itoa+0xc4>
/home/kwilson/Projects/gfe2368/liblpc23xx/lpc23xx-util/lpc23xx-util.c:154
        val   = -val;
        minus = 1;
    }

    if(val == 0) {
        ibuf[0] = '0';
    12e4:	03a03030 	moveq	r3, #48	; 0x30
    12e8:	05c73000 	strbeq	r3, [r7]
/home/kwilson/Projects/gfe2368/liblpc23xx/lpc23xx-util/lpc23xx-util.c:155
        return &ibuf[0];
    12ec:	01a00007 	moveq	r0, r7
/home/kwilson/Projects/gfe2368/liblpc23xx/lpc23xx-util/lpc23xx-util.c:153
    if(val < 0) {
        val   = -val;
        minus = 1;
    }

    if(val == 0) {
    12f0:	08bd85f0 	popeq	{r4, r5, r6, r7, r8, sl, pc}
    12f4:	e1a0a002 	mov	sl, r2
    12f8:	e59f8068 	ldr	r8, [pc, #104]	; 1368 <util_itoa+0xdc>
    12fc:	e3a0501f 	mov	r5, #31
/home/kwilson/Projects/gfe2368/liblpc23xx/lpc23xx-util/lpc23xx-util.c:158
        ibuf[0] = '0';
        return &ibuf[0];
    } else {
        for(; val && i ; --i, val /= base) {
            ibuf[i] = "0123456789abcdef"[val % base];
    1300:	e1a00004 	mov	r0, r4
    1304:	e1a01006 	mov	r1, r6
    1308:	eb0001d7 	bl	1a6c <__umodsi3>
    130c:	e7d83000 	ldrb	r3, [r8, r0]
/home/kwilson/Projects/gfe2368/liblpc23xx/lpc23xx-util/lpc23xx-util.c:157

    if(val == 0) {
        ibuf[0] = '0';
        return &ibuf[0];
    } else {
        for(; val && i ; --i, val /= base) {
    1310:	e1a01006 	mov	r1, r6
    1314:	e1a00004 	mov	r0, r4
/home/kwilson/Projects/gfe2368/liblpc23xx/lpc23xx-util/lpc23xx-util.c:158
            ibuf[i] = "0123456789abcdef"[val % base];
    1318:	e7c73005 	strb	r3, [r7, r5]
/home/kwilson/Projects/gfe2368/liblpc23xx/lpc23xx-util/lpc23xx-util.c:157

    if(val == 0) {
        ibuf[0] = '0';
        return &ibuf[0];
    } else {
        for(; val && i ; --i, val /= base) {
    131c:	eb00018c 	bl	1954 <__aeabi_uidiv>
    1320:	e2455001 	sub	r5, r5, #1
    1324:	e3500000 	cmp	r0, #0
    1328:	13550000 	cmpne	r5, #0
    132c:	e1a04000 	mov	r4, r0
/home/kwilson/Projects/gfe2368/liblpc23xx/lpc23xx-util/lpc23xx-util.c:158
            ibuf[i] = "0123456789abcdef"[val % base];
    1330:	e59f002c 	ldr	r0, [pc, #44]	; 1364 <util_itoa+0xd8>
/home/kwilson/Projects/gfe2368/liblpc23xx/lpc23xx-util/lpc23xx-util.c:157

    if(val == 0) {
        ibuf[0] = '0';
        return &ibuf[0];
    } else {
        for(; val && i ; --i, val /= base) {
    1334:	1afffff1 	bne	1300 <util_itoa+0x74>
/home/kwilson/Projects/gfe2368/liblpc23xx/lpc23xx-util/lpc23xx-util.c:161
            ibuf[i] = "0123456789abcdef"[val % base];
        }

        if(minus == 1 && base == 10) {
    1338:	e35a0000 	cmp	sl, #0
/home/kwilson/Projects/gfe2368/liblpc23xx/lpc23xx-util/lpc23xx-util.c:162
            ibuf[i] = '-';
    133c:	13a0302d 	movne	r3, #45	; 0x2d
/home/kwilson/Projects/gfe2368/liblpc23xx/lpc23xx-util/lpc23xx-util.c:165
            return &ibuf[i];
        } else {
            return &ibuf[i+1];
    1340:	02855001 	addeq	r5, r5, #1
/home/kwilson/Projects/gfe2368/liblpc23xx/lpc23xx-util/lpc23xx-util.c:162
        for(; val && i ; --i, val /= base) {
            ibuf[i] = "0123456789abcdef"[val % base];
        }

        if(minus == 1 && base == 10) {
            ibuf[i] = '-';
    1344:	17e03005 	strbne	r3, [r0, r5]!
/home/kwilson/Projects/gfe2368/liblpc23xx/lpc23xx-util/lpc23xx-util.c:165
            return &ibuf[i];
        } else {
            return &ibuf[i+1];
    1348:	00800005 	addeq	r0, r0, r5
/home/kwilson/Projects/gfe2368/liblpc23xx/lpc23xx-util/lpc23xx-util.c:168
        }
    }
}
    134c:	e8bd85f0 	pop	{r4, r5, r6, r7, r8, sl, pc}
/home/kwilson/Projects/gfe2368/liblpc23xx/lpc23xx-util/lpc23xx-util.c:149
    int         minus = 0;

    memset(ibuf,'\0',MAX_I2ASTRING);

    if(val < 0) {
        val   = -val;
    1350:	e2644000 	rsb	r4, r4, #0
    1354:	e351000a 	cmp	r1, #10
    1358:	13a0a000 	movne	sl, #0
    135c:	03a0a001 	moveq	sl, #1
    1360:	eaffffe4 	b	12f8 <util_itoa+0x6c>
    1364:	400004c4 	.word	0x400004c4
    1368:	00001d24 	.word	0x00001d24

0000136c <util_uitoa>:
util_uitoa():
/home/kwilson/Projects/gfe2368/liblpc23xx/lpc23xx-util/lpc23xx-util.c:180

    static char ibuf[MAX_I2ASTRING];

    int         i = MAX_I2ASTRING-2;

    memset(ibuf,'\0',MAX_I2ASTRING);
    136c:	e59f3090 	ldr	r3, [pc, #144]	; 1404 <util_uitoa+0x98>
/home/kwilson/Projects/gfe2368/liblpc23xx/lpc23xx-util/lpc23xx-util.c:174

/*
 * util_uitoa
 * convert an unsigned int to a string...
 */
char* util_uitoa(uint32_t val, uint32_t base) {
    1370:	e92d41f0 	push	{r4, r5, r6, r7, r8, lr}
/home/kwilson/Projects/gfe2368/liblpc23xx/lpc23xx-util/lpc23xx-util.c:180

    static char ibuf[MAX_I2ASTRING];

    int         i = MAX_I2ASTRING-2;

    memset(ibuf,'\0',MAX_I2ASTRING);
    1374:	e3a02000 	mov	r2, #0
/home/kwilson/Projects/gfe2368/liblpc23xx/lpc23xx-util/lpc23xx-util.c:182

    if(val == 0) {
    1378:	e2505000 	subs	r5, r0, #0
/home/kwilson/Projects/gfe2368/liblpc23xx/lpc23xx-util/lpc23xx-util.c:180

    static char ibuf[MAX_I2ASTRING];

    int         i = MAX_I2ASTRING-2;

    memset(ibuf,'\0',MAX_I2ASTRING);
    137c:	e5832024 	str	r2, [r3, #36]	; 0x24
    1380:	e2837024 	add	r7, r3, #36	; 0x24
    1384:	e5832028 	str	r2, [r3, #40]	; 0x28
    1388:	e583202c 	str	r2, [r3, #44]	; 0x2c
    138c:	e5832030 	str	r2, [r3, #48]	; 0x30
    1390:	e5832034 	str	r2, [r3, #52]	; 0x34
    1394:	e5832038 	str	r2, [r3, #56]	; 0x38
    1398:	e583203c 	str	r2, [r3, #60]	; 0x3c
    139c:	e5832040 	str	r2, [r3, #64]	; 0x40
    13a0:	e5c32044 	strb	r2, [r3, #68]	; 0x44
/home/kwilson/Projects/gfe2368/liblpc23xx/lpc23xx-util/lpc23xx-util.c:183

    if(val == 0) {
        ibuf[0] = '0';
    13a4:	03a02030 	moveq	r2, #48	; 0x30
/home/kwilson/Projects/gfe2368/liblpc23xx/lpc23xx-util/lpc23xx-util.c:174

/*
 * util_uitoa
 * convert an unsigned int to a string...
 */
char* util_uitoa(uint32_t val, uint32_t base) {
    13a8:	e1a06001 	mov	r6, r1
/home/kwilson/Projects/gfe2368/liblpc23xx/lpc23xx-util/lpc23xx-util.c:183
    int         i = MAX_I2ASTRING-2;

    memset(ibuf,'\0',MAX_I2ASTRING);

    if(val == 0) {
        ibuf[0] = '0';
    13ac:	05c32024 	strbeq	r2, [r3, #36]	; 0x24
/home/kwilson/Projects/gfe2368/liblpc23xx/lpc23xx-util/lpc23xx-util.c:184
        return &ibuf[0];
    13b0:	01a00007 	moveq	r0, r7
/home/kwilson/Projects/gfe2368/liblpc23xx/lpc23xx-util/lpc23xx-util.c:182

    int         i = MAX_I2ASTRING-2;

    memset(ibuf,'\0',MAX_I2ASTRING);

    if(val == 0) {
    13b4:	08bd81f0 	popeq	{r4, r5, r6, r7, r8, pc}
    13b8:	e59f8048 	ldr	r8, [pc, #72]	; 1408 <util_uitoa+0x9c>
    13bc:	e3a0401f 	mov	r4, #31
/home/kwilson/Projects/gfe2368/liblpc23xx/lpc23xx-util/lpc23xx-util.c:187
        ibuf[0] = '0';
        return &ibuf[0];
    } else {
        for(; val && i ; --i, val /= base) {
            ibuf[i] = "0123456789abcdef"[val % base];
    13c0:	e1a00005 	mov	r0, r5
    13c4:	e1a01006 	mov	r1, r6
    13c8:	eb0001a7 	bl	1a6c <__umodsi3>
    13cc:	e7d83000 	ldrb	r3, [r8, r0]
/home/kwilson/Projects/gfe2368/liblpc23xx/lpc23xx-util/lpc23xx-util.c:186

    if(val == 0) {
        ibuf[0] = '0';
        return &ibuf[0];
    } else {
        for(; val && i ; --i, val /= base) {
    13d0:	e1a01006 	mov	r1, r6
    13d4:	e1a00005 	mov	r0, r5
/home/kwilson/Projects/gfe2368/liblpc23xx/lpc23xx-util/lpc23xx-util.c:187
            ibuf[i] = "0123456789abcdef"[val % base];
    13d8:	e7c73004 	strb	r3, [r7, r4]
/home/kwilson/Projects/gfe2368/liblpc23xx/lpc23xx-util/lpc23xx-util.c:186

    if(val == 0) {
        ibuf[0] = '0';
        return &ibuf[0];
    } else {
        for(; val && i ; --i, val /= base) {
    13dc:	eb00015c 	bl	1954 <__aeabi_uidiv>
    13e0:	e2444001 	sub	r4, r4, #1
    13e4:	e3540000 	cmp	r4, #0
    13e8:	13500000 	cmpne	r0, #0
    13ec:	e1a05000 	mov	r5, r0
    13f0:	1afffff2 	bne	13c0 <util_uitoa+0x54>
/home/kwilson/Projects/gfe2368/liblpc23xx/lpc23xx-util/lpc23xx-util.c:189
            ibuf[i] = "0123456789abcdef"[val % base];
        }
        return &ibuf[i+1];
    13f4:	e59f0010 	ldr	r0, [pc, #16]	; 140c <util_uitoa+0xa0>
    13f8:	e2844001 	add	r4, r4, #1
    13fc:	e0800004 	add	r0, r0, r4
/home/kwilson/Projects/gfe2368/liblpc23xx/lpc23xx-util/lpc23xx-util.c:191
    }
}
    1400:	e8bd81f0 	pop	{r4, r5, r6, r7, r8, pc}
    1404:	400004c4 	.word	0x400004c4
    1408:	00001d24 	.word	0x00001d24
    140c:	400004e8 	.word	0x400004e8

00001410 <debug_msg>:
debug_msg():
/home/kwilson/Projects/gfe2368/liblpc23xx/lpc23xx-util/lpc23xx-util.c:196

/*
 * debug_msg
 */
void debug_msg(char* msg) {
    1410:	e52de004 	push	{lr}		; (str lr, [sp, #-4]!)
/home/kwilson/Projects/gfe2368/liblpc23xx/lpc23xx-util/lpc23xx-util.c:197
    uart0_putstring(msg) ;
    1414:	ebfffed0 	bl	f5c <uart0_putstring>
/home/kwilson/Projects/gfe2368/liblpc23xx/lpc23xx-util/lpc23xx-util.c:198
    uart0_putstring("\n");
    1418:	e59f0004 	ldr	r0, [pc, #4]	; 1424 <debug_msg+0x14>
/home/kwilson/Projects/gfe2368/liblpc23xx/lpc23xx-util/lpc23xx-util.c:199
}
    141c:	e49de004 	pop	{lr}		; (ldr lr, [sp], #4)
/home/kwilson/Projects/gfe2368/liblpc23xx/lpc23xx-util/lpc23xx-util.c:198
/*
 * debug_msg
 */
void debug_msg(char* msg) {
    uart0_putstring(msg) ;
    uart0_putstring("\n");
    1420:	eafffecd 	b	f5c <uart0_putstring>
    1424:	00001d20 	.word	0x00001d20

00001428 <debug_val>:
debug_val():
/home/kwilson/Projects/gfe2368/liblpc23xx/lpc23xx-util/lpc23xx-util.c:204
}

/*
 * debug_val
 */
void debug_val(char* msg, int32_t val, uint32_t base) {
    1428:	e92d45f0 	push	{r4, r5, r6, r7, r8, sl, lr}
util_itoa():
/home/kwilson/Projects/gfe2368/liblpc23xx/lpc23xx-util/lpc23xx-util.c:146
    static char ibuf[MAX_I2ASTRING];

    int         i     = MAX_I2ASTRING-2;
    int         minus = 0;

    memset(ibuf,'\0',MAX_I2ASTRING);
    142c:	e59f50dc 	ldr	r5, [pc, #220]	; 1510 <debug_val+0xe8>
    1430:	e3a0a000 	mov	sl, #0
debug_val():
/home/kwilson/Projects/gfe2368/liblpc23xx/lpc23xx-util/lpc23xx-util.c:204
}

/*
 * debug_val
 */
void debug_val(char* msg, int32_t val, uint32_t base) {
    1434:	e1a04001 	mov	r4, r1
    1438:	e1a07002 	mov	r7, r2
/home/kwilson/Projects/gfe2368/liblpc23xx/lpc23xx-util/lpc23xx-util.c:205
    uart0_putstring(msg) ;
    143c:	ebfffec6 	bl	f5c <uart0_putstring>
util_itoa():
/home/kwilson/Projects/gfe2368/liblpc23xx/lpc23xx-util/lpc23xx-util.c:146
    static char ibuf[MAX_I2ASTRING];

    int         i     = MAX_I2ASTRING-2;
    int         minus = 0;

    memset(ibuf,'\0',MAX_I2ASTRING);
    1440:	e2853008 	add	r3, r5, #8
    1444:	e583a000 	str	sl, [r3]
    1448:	e285300c 	add	r3, r5, #12
    144c:	e583a000 	str	sl, [r3]
    1450:	e2853010 	add	r3, r5, #16
    1454:	e583a000 	str	sl, [r3]
    1458:	e2853014 	add	r3, r5, #20
    145c:	e583a000 	str	sl, [r3]
    1460:	e2853018 	add	r3, r5, #24
    1464:	e583a000 	str	sl, [r3]
    1468:	e285301c 	add	r3, r5, #28
    146c:	e583a000 	str	sl, [r3]
/home/kwilson/Projects/gfe2368/liblpc23xx/lpc23xx-util/lpc23xx-util.c:148

    if(val < 0) {
    1470:	e154000a 	cmp	r4, sl
/home/kwilson/Projects/gfe2368/liblpc23xx/lpc23xx-util/lpc23xx-util.c:146
    static char ibuf[MAX_I2ASTRING];

    int         i     = MAX_I2ASTRING-2;
    int         minus = 0;

    memset(ibuf,'\0',MAX_I2ASTRING);
    1474:	e2853020 	add	r3, r5, #32
    1478:	e585a000 	str	sl, [r5]
    147c:	e585a004 	str	sl, [r5, #4]
    1480:	e5c3a000 	strb	sl, [r3]
/home/kwilson/Projects/gfe2368/liblpc23xx/lpc23xx-util/lpc23xx-util.c:148

    if(val < 0) {
    1484:	ba000007 	blt	14a8 <debug_val+0x80>
/home/kwilson/Projects/gfe2368/liblpc23xx/lpc23xx-util/lpc23xx-util.c:154
        val   = -val;
        minus = 1;
    }

    if(val == 0) {
        ibuf[0] = '0';
    1488:	03a03030 	moveq	r3, #48	; 0x30
    148c:	05c53000 	strbeq	r3, [r5]
/home/kwilson/Projects/gfe2368/liblpc23xx/lpc23xx-util/lpc23xx-util.c:155
        return &ibuf[0];
    1490:	01a00005 	moveq	r0, r5
/home/kwilson/Projects/gfe2368/liblpc23xx/lpc23xx-util/lpc23xx-util.c:153
    if(val < 0) {
        val   = -val;
        minus = 1;
    }

    if(val == 0) {
    1494:	1a000007 	bne	14b8 <debug_val+0x90>
debug_val():
/home/kwilson/Projects/gfe2368/liblpc23xx/lpc23xx-util/lpc23xx-util.c:206
/*
 * debug_val
 */
void debug_val(char* msg, int32_t val, uint32_t base) {
    uart0_putstring(msg) ;
    uart0_putstring(util_itoa(val,base));
    1498:	ebfffeaf 	bl	f5c <uart0_putstring>
/home/kwilson/Projects/gfe2368/liblpc23xx/lpc23xx-util/lpc23xx-util.c:207
    uart0_putstring("\n");
    149c:	e59f0070 	ldr	r0, [pc, #112]	; 1514 <debug_val+0xec>
/home/kwilson/Projects/gfe2368/liblpc23xx/lpc23xx-util/lpc23xx-util.c:208
}
    14a0:	e8bd45f0 	pop	{r4, r5, r6, r7, r8, sl, lr}
/home/kwilson/Projects/gfe2368/liblpc23xx/lpc23xx-util/lpc23xx-util.c:207
 * debug_val
 */
void debug_val(char* msg, int32_t val, uint32_t base) {
    uart0_putstring(msg) ;
    uart0_putstring(util_itoa(val,base));
    uart0_putstring("\n");
    14a4:	eafffeac 	b	f5c <uart0_putstring>
util_itoa():
/home/kwilson/Projects/gfe2368/liblpc23xx/lpc23xx-util/lpc23xx-util.c:149
    int         minus = 0;

    memset(ibuf,'\0',MAX_I2ASTRING);

    if(val < 0) {
        val   = -val;
    14a8:	e2644000 	rsb	r4, r4, #0
    14ac:	e357000a 	cmp	r7, #10
    14b0:	13a0a000 	movne	sl, #0
    14b4:	03a0a001 	moveq	sl, #1
    14b8:	e59f8058 	ldr	r8, [pc, #88]	; 1518 <debug_val+0xf0>
/home/kwilson/Projects/gfe2368/liblpc23xx/lpc23xx-util/lpc23xx-util.c:153
        minus = 1;
    }

    if(val == 0) {
    14bc:	e3a0601f 	mov	r6, #31
/home/kwilson/Projects/gfe2368/liblpc23xx/lpc23xx-util/lpc23xx-util.c:158
        ibuf[0] = '0';
        return &ibuf[0];
    } else {
        for(; val && i ; --i, val /= base) {
            ibuf[i] = "0123456789abcdef"[val % base];
    14c0:	e1a00004 	mov	r0, r4
    14c4:	e1a01007 	mov	r1, r7
    14c8:	eb000167 	bl	1a6c <__umodsi3>
    14cc:	e7d83000 	ldrb	r3, [r8, r0]
/home/kwilson/Projects/gfe2368/liblpc23xx/lpc23xx-util/lpc23xx-util.c:157

    if(val == 0) {
        ibuf[0] = '0';
        return &ibuf[0];
    } else {
        for(; val && i ; --i, val /= base) {
    14d0:	e1a01007 	mov	r1, r7
    14d4:	e1a00004 	mov	r0, r4
/home/kwilson/Projects/gfe2368/liblpc23xx/lpc23xx-util/lpc23xx-util.c:158
            ibuf[i] = "0123456789abcdef"[val % base];
    14d8:	e7c53006 	strb	r3, [r5, r6]
/home/kwilson/Projects/gfe2368/liblpc23xx/lpc23xx-util/lpc23xx-util.c:157

    if(val == 0) {
        ibuf[0] = '0';
        return &ibuf[0];
    } else {
        for(; val && i ; --i, val /= base) {
    14dc:	eb00011c 	bl	1954 <__aeabi_uidiv>
    14e0:	e2466001 	sub	r6, r6, #1
    14e4:	e3500000 	cmp	r0, #0
    14e8:	13560000 	cmpne	r6, #0
    14ec:	e1a04000 	mov	r4, r0
/home/kwilson/Projects/gfe2368/liblpc23xx/lpc23xx-util/lpc23xx-util.c:158
            ibuf[i] = "0123456789abcdef"[val % base];
    14f0:	e59f0018 	ldr	r0, [pc, #24]	; 1510 <debug_val+0xe8>
/home/kwilson/Projects/gfe2368/liblpc23xx/lpc23xx-util/lpc23xx-util.c:157

    if(val == 0) {
        ibuf[0] = '0';
        return &ibuf[0];
    } else {
        for(; val && i ; --i, val /= base) {
    14f4:	1afffff1 	bne	14c0 <debug_val+0x98>
/home/kwilson/Projects/gfe2368/liblpc23xx/lpc23xx-util/lpc23xx-util.c:161
            ibuf[i] = "0123456789abcdef"[val % base];
        }

        if(minus == 1 && base == 10) {
    14f8:	e35a0000 	cmp	sl, #0
/home/kwilson/Projects/gfe2368/liblpc23xx/lpc23xx-util/lpc23xx-util.c:162
            ibuf[i] = '-';
    14fc:	13a0302d 	movne	r3, #45	; 0x2d
/home/kwilson/Projects/gfe2368/liblpc23xx/lpc23xx-util/lpc23xx-util.c:165
            return &ibuf[i];
        } else {
            return &ibuf[i+1];
    1500:	02866001 	addeq	r6, r6, #1
/home/kwilson/Projects/gfe2368/liblpc23xx/lpc23xx-util/lpc23xx-util.c:162
        for(; val && i ; --i, val /= base) {
            ibuf[i] = "0123456789abcdef"[val % base];
        }

        if(minus == 1 && base == 10) {
            ibuf[i] = '-';
    1504:	17e03006 	strbne	r3, [r0, r6]!
/home/kwilson/Projects/gfe2368/liblpc23xx/lpc23xx-util/lpc23xx-util.c:165
            return &ibuf[i];
        } else {
            return &ibuf[i+1];
    1508:	00800006 	addeq	r0, r0, r6
    150c:	eaffffe1 	b	1498 <debug_val+0x70>
    1510:	400004c4 	.word	0x400004c4
    1514:	00001d20 	.word	0x00001d20
    1518:	00001d24 	.word	0x00001d24

0000151c <putstring_lpc>:
putstring_lpc():
/home/kwilson/Projects/gfe2368/liblpc23xx/lpc23xx-util/lpc23xx-util.c:215
/*
 * putstring_lpc
 * put a string to a uart port
 */
void putstring_lpc(uartport p, const char *s) {
    switch(p){ 
    151c:	e3500000 	cmp	r0, #0
    1520:	112fff1e 	bxne	lr
/home/kwilson/Projects/gfe2368/liblpc23xx/lpc23xx-util/lpc23xx-util.c:217
        case UART0:
            uart0_putstring(s);
    1524:	e1a00001 	mov	r0, r1
    1528:	eafffe8b 	b	f5c <uart0_putstring>

0000152c <putchar_lpc>:
putchar_lpc():
/home/kwilson/Projects/gfe2368/liblpc23xx/lpc23xx-util/lpc23xx-util.c:236
}
/*
 * put a character to a uart port
 */
void putchar_lpc(uartport p,  char c) {
    switch(p){ 
    152c:	e3500000 	cmp	r0, #0
/home/kwilson/Projects/gfe2368/liblpc23xx/lpc23xx-util/lpc23xx-util.c:235
    }
}
/*
 * put a character to a uart port
 */
void putchar_lpc(uartport p,  char c) {
    1530:	e20100ff 	and	r0, r1, #255	; 0xff
/home/kwilson/Projects/gfe2368/liblpc23xx/lpc23xx-util/lpc23xx-util.c:236
    switch(p){ 
    1534:	112fff1e 	bxne	lr
/home/kwilson/Projects/gfe2368/liblpc23xx/lpc23xx-util/lpc23xx-util.c:238
        case UART0:
            uart0_putchar(c);
    1538:	eafffe71 	b	f04 <uart0_putchar>

0000153c <util_waitticks>:
util_waitticks():
/home/kwilson/Projects/gfe2368/liblpc23xx/lpc23xx-util/lpc23xx-util.c:259
/*
 * util_waitTicks
 * -----------------------
 * Spin in a loop for ticks ..
 */
void util_waitticks(uint32_t ticks) {
    153c:	e24dd008 	sub	sp, sp, #8
/home/kwilson/Projects/gfe2368/liblpc23xx/lpc23xx-util/lpc23xx-util.c:260
    volatile uint32_t j=0;
    1540:	e3a03000 	mov	r3, #0
    1544:	e58d3004 	str	r3, [sp, #4]
/home/kwilson/Projects/gfe2368/liblpc23xx/lpc23xx-util/lpc23xx-util.c:261
    volatile uint32_t k=0;
    1548:	e58d3000 	str	r3, [sp]
/home/kwilson/Projects/gfe2368/liblpc23xx/lpc23xx-util/lpc23xx-util.c:263

    k=0;
    154c:	e58d3000 	str	r3, [sp]
/home/kwilson/Projects/gfe2368/liblpc23xx/lpc23xx-util/lpc23xx-util.c:264
    for(j=ticks; j>0; --j) k++;
    1550:	e58d0004 	str	r0, [sp, #4]
    1554:	e59d3004 	ldr	r3, [sp, #4]
    1558:	e3530000 	cmp	r3, #0
    155c:	0a000008 	beq	1584 <util_waitticks+0x48>
    1560:	e59d3000 	ldr	r3, [sp]
    1564:	e2833001 	add	r3, r3, #1
    1568:	e58d3000 	str	r3, [sp]
    156c:	e59d3004 	ldr	r3, [sp, #4]
    1570:	e2433001 	sub	r3, r3, #1
    1574:	e58d3004 	str	r3, [sp, #4]
    1578:	e59d3004 	ldr	r3, [sp, #4]
    157c:	e3530000 	cmp	r3, #0
    1580:	1afffff6 	bne	1560 <util_waitticks+0x24>
/home/kwilson/Projects/gfe2368/liblpc23xx/lpc23xx-util/lpc23xx-util.c:265
}
    1584:	e28dd008 	add	sp, sp, #8
    1588:	e12fff1e 	bx	lr

0000158c <util_wait_msecs>:
util_wait_msecs():
/home/kwilson/Projects/gfe2368/liblpc23xx/lpc23xx-util/lpc23xx-util.c:271

/*
 * util_wait_msecs
 * wait n millisecs
 */
void util_wait_msecs(uint32_t msecs) {
    158c:	e92d4010 	push	{r4, lr}
    1590:	e24dd008 	sub	sp, sp, #8
    1594:	e1a04000 	mov	r4, r0
millisecondsToCPUTicks():
/home/kwilson/Projects/gfe2368/liblpc23xx/lpc23xx-util/lpc23xx-util.c:131

/*
 * millisecondsToCPUTicks
 */
uint32_t millisecondsToCPUTicks(const uint32_t milliseconds) {
    uint32_t ret = (pllquery_cclk_mhz() / 1000) * milliseconds;
    1598:	ebfffc8a 	bl	7c8 <pllquery_cclk_mhz>
    159c:	e59f3060 	ldr	r3, [pc, #96]	; 1604 <util_wait_msecs+0x78>
    15a0:	e0832390 	umull	r2, r3, r0, r3
    15a4:	e1a03323 	lsr	r3, r3, #6
    15a8:	e0040493 	mul	r4, r3, r4
util_wait_msecs():
/home/kwilson/Projects/gfe2368/liblpc23xx/lpc23xx-util/lpc23xx-util.c:286
         */
        uint32_t scale = 85;

	ticks = millisecondsToCPUTicks(msecs);

	util_waitticks(ticks / scale);
    15ac:	e59f3054 	ldr	r3, [pc, #84]	; 1608 <util_wait_msecs+0x7c>
    15b0:	e0842493 	umull	r2, r4, r3, r4
util_waitticks():
/home/kwilson/Projects/gfe2368/liblpc23xx/lpc23xx-util/lpc23xx-util.c:260
 * util_waitTicks
 * -----------------------
 * Spin in a loop for ticks ..
 */
void util_waitticks(uint32_t ticks) {
    volatile uint32_t j=0;
    15b4:	e3a03000 	mov	r3, #0
util_wait_msecs():
/home/kwilson/Projects/gfe2368/liblpc23xx/lpc23xx-util/lpc23xx-util.c:286
         */
        uint32_t scale = 85;

	ticks = millisecondsToCPUTicks(msecs);

	util_waitticks(ticks / scale);
    15b8:	e1a04324 	lsr	r4, r4, #6
util_waitticks():
/home/kwilson/Projects/gfe2368/liblpc23xx/lpc23xx-util/lpc23xx-util.c:260
 * util_waitTicks
 * -----------------------
 * Spin in a loop for ticks ..
 */
void util_waitticks(uint32_t ticks) {
    volatile uint32_t j=0;
    15bc:	e58d3004 	str	r3, [sp, #4]
/home/kwilson/Projects/gfe2368/liblpc23xx/lpc23xx-util/lpc23xx-util.c:261
    volatile uint32_t k=0;
    15c0:	e58d3000 	str	r3, [sp]
/home/kwilson/Projects/gfe2368/liblpc23xx/lpc23xx-util/lpc23xx-util.c:263

    k=0;
    15c4:	e58d3000 	str	r3, [sp]
/home/kwilson/Projects/gfe2368/liblpc23xx/lpc23xx-util/lpc23xx-util.c:264
    for(j=ticks; j>0; --j) k++;
    15c8:	e58d4004 	str	r4, [sp, #4]
    15cc:	e59d3004 	ldr	r3, [sp, #4]
    15d0:	e3530000 	cmp	r3, #0
    15d4:	0a000008 	beq	15fc <util_wait_msecs+0x70>
    15d8:	e59d3000 	ldr	r3, [sp]
    15dc:	e2833001 	add	r3, r3, #1
    15e0:	e58d3000 	str	r3, [sp]
    15e4:	e59d3004 	ldr	r3, [sp, #4]
    15e8:	e2433001 	sub	r3, r3, #1
    15ec:	e58d3004 	str	r3, [sp, #4]
    15f0:	e59d3004 	ldr	r3, [sp, #4]
    15f4:	e3530000 	cmp	r3, #0
    15f8:	1afffff6 	bne	15d8 <util_wait_msecs+0x4c>
util_wait_msecs():
/home/kwilson/Projects/gfe2368/liblpc23xx/lpc23xx-util/lpc23xx-util.c:288

	ticks = millisecondsToCPUTicks(msecs);

	util_waitticks(ticks / scale);

}
    15fc:	e28dd008 	add	sp, sp, #8
    1600:	e8bd8010 	pop	{r4, pc}
    1604:	10624dd3 	.word	0x10624dd3
    1608:	c0c0c0c1 	.word	0xc0c0c0c1

0000160c <util_wait_usecs>:
util_wait_usecs():
/home/kwilson/Projects/gfe2368/liblpc23xx/lpc23xx-util/lpc23xx-util.c:294

/*
 * util_wait_usecs
 * wait n uillisecs
 */
void util_wait_usecs(uint32_t usecs) {
    160c:	e92d4010 	push	{r4, lr}
    1610:	e24dd008 	sub	sp, sp, #8
    1614:	e1a04000 	mov	r4, r0
microsecondsToCPUTicks():
/home/kwilson/Projects/gfe2368/liblpc23xx/lpc23xx-util/lpc23xx-util.c:123

/*
 * microsecondsToCPUTicks
 */
uint32_t microsecondsToCPUTicks(const uint32_t microseconds) {
    uint32_t ret = ( pllquery_cclk_mhz() / 1000000) * microseconds;
    1618:	ebfffc6a 	bl	7c8 <pllquery_cclk_mhz>
    161c:	e59f3060 	ldr	r3, [pc, #96]	; 1684 <util_wait_usecs+0x78>
    1620:	e0832390 	umull	r2, r3, r0, r3
    1624:	e1a03923 	lsr	r3, r3, #18
    1628:	e0040493 	mul	r4, r3, r4
util_wait_usecs():
/home/kwilson/Projects/gfe2368/liblpc23xx/lpc23xx-util/lpc23xx-util.c:306
         */
        uint32_t scale = 85;

	ticks = microsecondsToCPUTicks(usecs);

	util_waitticks(ticks / scale);
    162c:	e59f3054 	ldr	r3, [pc, #84]	; 1688 <util_wait_usecs+0x7c>
    1630:	e0842493 	umull	r2, r4, r3, r4
util_waitticks():
/home/kwilson/Projects/gfe2368/liblpc23xx/lpc23xx-util/lpc23xx-util.c:260
 * util_waitTicks
 * -----------------------
 * Spin in a loop for ticks ..
 */
void util_waitticks(uint32_t ticks) {
    volatile uint32_t j=0;
    1634:	e3a03000 	mov	r3, #0
util_wait_usecs():
/home/kwilson/Projects/gfe2368/liblpc23xx/lpc23xx-util/lpc23xx-util.c:306
         */
        uint32_t scale = 85;

	ticks = microsecondsToCPUTicks(usecs);

	util_waitticks(ticks / scale);
    1638:	e1a04324 	lsr	r4, r4, #6
util_waitticks():
/home/kwilson/Projects/gfe2368/liblpc23xx/lpc23xx-util/lpc23xx-util.c:260
 * util_waitTicks
 * -----------------------
 * Spin in a loop for ticks ..
 */
void util_waitticks(uint32_t ticks) {
    volatile uint32_t j=0;
    163c:	e58d3004 	str	r3, [sp, #4]
/home/kwilson/Projects/gfe2368/liblpc23xx/lpc23xx-util/lpc23xx-util.c:261
    volatile uint32_t k=0;
    1640:	e58d3000 	str	r3, [sp]
/home/kwilson/Projects/gfe2368/liblpc23xx/lpc23xx-util/lpc23xx-util.c:263

    k=0;
    1644:	e58d3000 	str	r3, [sp]
/home/kwilson/Projects/gfe2368/liblpc23xx/lpc23xx-util/lpc23xx-util.c:264
    for(j=ticks; j>0; --j) k++;
    1648:	e58d4004 	str	r4, [sp, #4]
    164c:	e59d3004 	ldr	r3, [sp, #4]
    1650:	e3530000 	cmp	r3, #0
    1654:	0a000008 	beq	167c <util_wait_usecs+0x70>
    1658:	e59d3000 	ldr	r3, [sp]
    165c:	e2833001 	add	r3, r3, #1
    1660:	e58d3000 	str	r3, [sp]
    1664:	e59d3004 	ldr	r3, [sp, #4]
    1668:	e2433001 	sub	r3, r3, #1
    166c:	e58d3004 	str	r3, [sp, #4]
    1670:	e59d3004 	ldr	r3, [sp, #4]
    1674:	e3530000 	cmp	r3, #0
    1678:	1afffff6 	bne	1658 <util_wait_usecs+0x4c>
util_wait_usecs():
/home/kwilson/Projects/gfe2368/liblpc23xx/lpc23xx-util/lpc23xx-util.c:308

	ticks = microsecondsToCPUTicks(usecs);

	util_waitticks(ticks / scale);

}
    167c:	e28dd008 	add	sp, sp, #8
    1680:	e8bd8010 	pop	{r4, pc}
    1684:	431bde83 	.word	0x431bde83
    1688:	c0c0c0c1 	.word	0xc0c0c0c1

0000168c <print_lpc>:
print_lpc():
/home/kwilson/Projects/gfe2368/liblpc23xx/lpc23xx-util/printf-lpc.c:50
 */

/*
 * print_lpc
 */
void print_lpc(uartport fd, const char *format, va_list args ) {
    168c:	e92d40f0 	push	{r4, r5, r6, r7, lr}
    1690:	e1a05001 	mov	r5, r1
/home/kwilson/Projects/gfe2368/liblpc23xx/lpc23xx-util/printf-lpc.c:54

    const char *curFormatPtr = format;

    for( ;*curFormatPtr != '\0'; curFormatPtr++ ) {
    1694:	e5d11000 	ldrb	r1, [r1]
    1698:	e3510000 	cmp	r1, #0
/home/kwilson/Projects/gfe2368/liblpc23xx/lpc23xx-util/printf-lpc.c:50
 */

/*
 * print_lpc
 */
void print_lpc(uartport fd, const char *format, va_list args ) {
    169c:	e1a04000 	mov	r4, r0
    16a0:	e1a06002 	mov	r6, r2
/home/kwilson/Projects/gfe2368/liblpc23xx/lpc23xx-util/printf-lpc.c:54

    const char *curFormatPtr = format;

    for( ;*curFormatPtr != '\0'; curFormatPtr++ ) {
    16a4:	1a00001e 	bne	1724 <print_lpc+0x98>
    16a8:	e8bd80f0 	pop	{r4, r5, r6, r7, pc}
/home/kwilson/Projects/gfe2368/liblpc23xx/lpc23xx-util/printf-lpc.c:59
        if( *curFormatPtr != '%' ) {
            putchar_lpc(fd, *curFormatPtr);
        } else {
            curFormatPtr++;
            if( *curFormatPtr == '\0') {
    16ac:	e5f51001 	ldrb	r1, [r5, #1]!
    16b0:	e3510000 	cmp	r1, #0
    16b4:	08bd80f0 	popeq	{r4, r5, r6, r7, pc}
/home/kwilson/Projects/gfe2368/liblpc23xx/lpc23xx-util/printf-lpc.c:62
                break;
            }
            if( *curFormatPtr == 'd') {
    16b8:	e3510064 	cmp	r1, #100	; 0x64
    16bc:	0a000028 	beq	1764 <print_lpc+0xd8>
/home/kwilson/Projects/gfe2368/liblpc23xx/lpc23xx-util/printf-lpc.c:65
                const int valToPrint = va_arg( args, int );
                putstring_lpc(fd,util_itoa(valToPrint,DEC));
            } else if( *curFormatPtr == 'u') {
    16c0:	e3510075 	cmp	r1, #117	; 0x75
    16c4:	0a00002e 	beq	1784 <print_lpc+0xf8>
/home/kwilson/Projects/gfe2368/liblpc23xx/lpc23xx-util/printf-lpc.c:68
                const unsigned int valToPrint = va_arg( args, unsigned int );
                putstring_lpc(fd,util_uitoa(valToPrint,DEC));
            } else if( *curFormatPtr == 'X') {
    16c8:	e3510058 	cmp	r1, #88	; 0x58
    16cc:	0a00001c 	beq	1744 <print_lpc+0xb8>
/home/kwilson/Projects/gfe2368/liblpc23xx/lpc23xx-util/printf-lpc.c:71
                unsigned int valToPrint = va_arg( args, unsigned int );
                putstring_lpc(fd, util_uitoa(valToPrint,HEX));
            } else if( *curFormatPtr == 'x') {
    16d0:	e3510078 	cmp	r1, #120	; 0x78
    16d4:	0a00001a 	beq	1744 <print_lpc+0xb8>
/home/kwilson/Projects/gfe2368/liblpc23xx/lpc23xx-util/printf-lpc.c:74
                unsigned int valToPrint = va_arg( args, unsigned int );
                putstring_lpc(fd, util_uitoa(valToPrint,HEX));
            } else if( *curFormatPtr == 'o') {
    16d8:	e351006f 	cmp	r1, #111	; 0x6f
    16dc:	0a00002b 	beq	1790 <print_lpc+0x104>
/home/kwilson/Projects/gfe2368/liblpc23xx/lpc23xx-util/printf-lpc.c:77
                unsigned int valToPrint = va_arg( args, unsigned int );
                putstring_lpc(fd, util_uitoa(valToPrint,OCT));
            } else if( *curFormatPtr == 'b') {
    16e0:	e3510062 	cmp	r1, #98	; 0x62
    16e4:	0a00002c 	beq	179c <print_lpc+0x110>
/home/kwilson/Projects/gfe2368/liblpc23xx/lpc23xx-util/printf-lpc.c:80
                unsigned int valToPrint = va_arg( args, unsigned int );
                putstring_lpc(fd, util_uitoa(valToPrint,BIN));
            } else if( *curFormatPtr == 's') {
    16e8:	e3510073 	cmp	r1, #115	; 0x73
    16ec:	0a00002d 	beq	17a8 <print_lpc+0x11c>
/home/kwilson/Projects/gfe2368/liblpc23xx/lpc23xx-util/printf-lpc.c:83
                char *s = (char *) va_arg( args, int );
                putstring_lpc(fd, s);
            } else if( *curFormatPtr == 'c') {
    16f0:	e3510063 	cmp	r1, #99	; 0x63
    16f4:	0a000031 	beq	17c0 <print_lpc+0x134>
/home/kwilson/Projects/gfe2368/liblpc23xx/lpc23xx-util/printf-lpc.c:86
                char ch = (char)va_arg( args, int );
                putchar_lpc(fd, ch);
            } else if( *curFormatPtr == '%') {
    16f8:	e3510025 	cmp	r1, #37	; 0x25
    16fc:	0a00000a 	beq	172c <print_lpc+0xa0>
/home/kwilson/Projects/gfe2368/liblpc23xx/lpc23xx-util/printf-lpc.c:90
                putchar_lpc(fd, '%');
            } else {
                //dont know what to do with this format string
                putchar_lpc(fd, '%');
    1700:	e3a01025 	mov	r1, #37	; 0x25
    1704:	e1a00004 	mov	r0, r4
    1708:	ebffff87 	bl	152c <putchar_lpc>
/home/kwilson/Projects/gfe2368/liblpc23xx/lpc23xx-util/printf-lpc.c:91
                putchar_lpc(fd, *curFormatPtr);
    170c:	e1a00004 	mov	r0, r4
    1710:	e5d51000 	ldrb	r1, [r5]
    1714:	ebffff84 	bl	152c <putchar_lpc>
/home/kwilson/Projects/gfe2368/liblpc23xx/lpc23xx-util/printf-lpc.c:54
 */
void print_lpc(uartport fd, const char *format, va_list args ) {

    const char *curFormatPtr = format;

    for( ;*curFormatPtr != '\0'; curFormatPtr++ ) {
    1718:	e5f51001 	ldrb	r1, [r5, #1]!
    171c:	e3510000 	cmp	r1, #0
    1720:	0a000006 	beq	1740 <print_lpc+0xb4>
/home/kwilson/Projects/gfe2368/liblpc23xx/lpc23xx-util/printf-lpc.c:55
        if( *curFormatPtr != '%' ) {
    1724:	e3510025 	cmp	r1, #37	; 0x25
    1728:	0affffdf 	beq	16ac <print_lpc+0x20>
/home/kwilson/Projects/gfe2368/liblpc23xx/lpc23xx-util/printf-lpc.c:87
                putstring_lpc(fd, s);
            } else if( *curFormatPtr == 'c') {
                char ch = (char)va_arg( args, int );
                putchar_lpc(fd, ch);
            } else if( *curFormatPtr == '%') {
                putchar_lpc(fd, '%');
    172c:	e1a00004 	mov	r0, r4
    1730:	ebffff7d 	bl	152c <putchar_lpc>
/home/kwilson/Projects/gfe2368/liblpc23xx/lpc23xx-util/printf-lpc.c:54
 */
void print_lpc(uartport fd, const char *format, va_list args ) {

    const char *curFormatPtr = format;

    for( ;*curFormatPtr != '\0'; curFormatPtr++ ) {
    1734:	e5f51001 	ldrb	r1, [r5, #1]!
    1738:	e3510000 	cmp	r1, #0
    173c:	1afffff8 	bne	1724 <print_lpc+0x98>
    1740:	e8bd80f0 	pop	{r4, r5, r6, r7, pc}
/home/kwilson/Projects/gfe2368/liblpc23xx/lpc23xx-util/printf-lpc.c:70
            } else if( *curFormatPtr == 'u') {
                const unsigned int valToPrint = va_arg( args, unsigned int );
                putstring_lpc(fd,util_uitoa(valToPrint,DEC));
            } else if( *curFormatPtr == 'X') {
                unsigned int valToPrint = va_arg( args, unsigned int );
                putstring_lpc(fd, util_uitoa(valToPrint,HEX));
    1744:	e5960000 	ldr	r0, [r6]
    1748:	e3a01010 	mov	r1, #16
    174c:	ebffff06 	bl	136c <util_uitoa>
    1750:	e1a01000 	mov	r1, r0
    1754:	e1a00004 	mov	r0, r4
/home/kwilson/Projects/gfe2368/liblpc23xx/lpc23xx-util/printf-lpc.c:69
                putstring_lpc(fd,util_itoa(valToPrint,DEC));
            } else if( *curFormatPtr == 'u') {
                const unsigned int valToPrint = va_arg( args, unsigned int );
                putstring_lpc(fd,util_uitoa(valToPrint,DEC));
            } else if( *curFormatPtr == 'X') {
                unsigned int valToPrint = va_arg( args, unsigned int );
    1758:	e2866004 	add	r6, r6, #4
/home/kwilson/Projects/gfe2368/liblpc23xx/lpc23xx-util/printf-lpc.c:70
                putstring_lpc(fd, util_uitoa(valToPrint,HEX));
    175c:	ebffff6e 	bl	151c <putstring_lpc>
    1760:	eaffffec 	b	1718 <print_lpc+0x8c>
/home/kwilson/Projects/gfe2368/liblpc23xx/lpc23xx-util/printf-lpc.c:64
            if( *curFormatPtr == '\0') {
                break;
            }
            if( *curFormatPtr == 'd') {
                const int valToPrint = va_arg( args, int );
                putstring_lpc(fd,util_itoa(valToPrint,DEC));
    1764:	e5960000 	ldr	r0, [r6]
    1768:	e3a0100a 	mov	r1, #10
    176c:	ebfffec6 	bl	128c <util_itoa>
    1770:	e1a01000 	mov	r1, r0
    1774:	e1a00004 	mov	r0, r4
/home/kwilson/Projects/gfe2368/liblpc23xx/lpc23xx-util/printf-lpc.c:63
            curFormatPtr++;
            if( *curFormatPtr == '\0') {
                break;
            }
            if( *curFormatPtr == 'd') {
                const int valToPrint = va_arg( args, int );
    1778:	e2866004 	add	r6, r6, #4
/home/kwilson/Projects/gfe2368/liblpc23xx/lpc23xx-util/printf-lpc.c:64
                putstring_lpc(fd,util_itoa(valToPrint,DEC));
    177c:	ebffff66 	bl	151c <putstring_lpc>
    1780:	eaffffe4 	b	1718 <print_lpc+0x8c>
/home/kwilson/Projects/gfe2368/liblpc23xx/lpc23xx-util/printf-lpc.c:67
            } else if( *curFormatPtr == 'u') {
                const unsigned int valToPrint = va_arg( args, unsigned int );
                putstring_lpc(fd,util_uitoa(valToPrint,DEC));
    1784:	e5960000 	ldr	r0, [r6]
    1788:	e3a0100a 	mov	r1, #10
    178c:	eaffffee 	b	174c <print_lpc+0xc0>
/home/kwilson/Projects/gfe2368/liblpc23xx/lpc23xx-util/printf-lpc.c:76
            } else if( *curFormatPtr == 'x') {
                unsigned int valToPrint = va_arg( args, unsigned int );
                putstring_lpc(fd, util_uitoa(valToPrint,HEX));
            } else if( *curFormatPtr == 'o') {
                unsigned int valToPrint = va_arg( args, unsigned int );
                putstring_lpc(fd, util_uitoa(valToPrint,OCT));
    1790:	e5960000 	ldr	r0, [r6]
    1794:	e3a01008 	mov	r1, #8
    1798:	eaffffeb 	b	174c <print_lpc+0xc0>
/home/kwilson/Projects/gfe2368/liblpc23xx/lpc23xx-util/printf-lpc.c:79
            } else if( *curFormatPtr == 'b') {
                unsigned int valToPrint = va_arg( args, unsigned int );
                putstring_lpc(fd, util_uitoa(valToPrint,BIN));
    179c:	e5960000 	ldr	r0, [r6]
    17a0:	e3a01002 	mov	r1, #2
    17a4:	eaffffe8 	b	174c <print_lpc+0xc0>
/home/kwilson/Projects/gfe2368/liblpc23xx/lpc23xx-util/printf-lpc.c:82
            } else if( *curFormatPtr == 's') {
                char *s = (char *) va_arg( args, int );
                putstring_lpc(fd, s);
    17a8:	e5961000 	ldr	r1, [r6]
/home/kwilson/Projects/gfe2368/liblpc23xx/lpc23xx-util/printf-lpc.c:81
                putstring_lpc(fd, util_uitoa(valToPrint,OCT));
            } else if( *curFormatPtr == 'b') {
                unsigned int valToPrint = va_arg( args, unsigned int );
                putstring_lpc(fd, util_uitoa(valToPrint,BIN));
            } else if( *curFormatPtr == 's') {
                char *s = (char *) va_arg( args, int );
    17ac:	e2867004 	add	r7, r6, #4
/home/kwilson/Projects/gfe2368/liblpc23xx/lpc23xx-util/printf-lpc.c:82
                putstring_lpc(fd, s);
    17b0:	e1a00004 	mov	r0, r4
    17b4:	ebffff58 	bl	151c <putstring_lpc>
/home/kwilson/Projects/gfe2368/liblpc23xx/lpc23xx-util/printf-lpc.c:81
                putstring_lpc(fd, util_uitoa(valToPrint,OCT));
            } else if( *curFormatPtr == 'b') {
                unsigned int valToPrint = va_arg( args, unsigned int );
                putstring_lpc(fd, util_uitoa(valToPrint,BIN));
            } else if( *curFormatPtr == 's') {
                char *s = (char *) va_arg( args, int );
    17b8:	e1a06007 	mov	r6, r7
    17bc:	eaffffd5 	b	1718 <print_lpc+0x8c>
/home/kwilson/Projects/gfe2368/liblpc23xx/lpc23xx-util/printf-lpc.c:85
                putstring_lpc(fd, s);
            } else if( *curFormatPtr == 'c') {
                char ch = (char)va_arg( args, int );
                putchar_lpc(fd, ch);
    17c0:	e5d61000 	ldrb	r1, [r6]
/home/kwilson/Projects/gfe2368/liblpc23xx/lpc23xx-util/printf-lpc.c:84
                putstring_lpc(fd, util_uitoa(valToPrint,BIN));
            } else if( *curFormatPtr == 's') {
                char *s = (char *) va_arg( args, int );
                putstring_lpc(fd, s);
            } else if( *curFormatPtr == 'c') {
                char ch = (char)va_arg( args, int );
    17c4:	e2867004 	add	r7, r6, #4
/home/kwilson/Projects/gfe2368/liblpc23xx/lpc23xx-util/printf-lpc.c:85
                putchar_lpc(fd, ch);
    17c8:	e1a00004 	mov	r0, r4
    17cc:	ebffff56 	bl	152c <putchar_lpc>
/home/kwilson/Projects/gfe2368/liblpc23xx/lpc23xx-util/printf-lpc.c:84
                putstring_lpc(fd, util_uitoa(valToPrint,BIN));
            } else if( *curFormatPtr == 's') {
                char *s = (char *) va_arg( args, int );
                putstring_lpc(fd, s);
            } else if( *curFormatPtr == 'c') {
                char ch = (char)va_arg( args, int );
    17d0:	e1a06007 	mov	r6, r7
    17d4:	eaffffcf 	b	1718 <print_lpc+0x8c>

000017d8 <printf_lpc>:
printf_lpc():
/home/kwilson/Projects/gfe2368/liblpc23xx/lpc23xx-util/printf-lpc.c:100
}

/*
 * printf_lpc
 */
void printf_lpc(uartport fd, const char *format, ... ) {
    17d8:	e92d000e 	push	{r1, r2, r3}
    17dc:	e52de004 	push	{lr}		; (str lr, [sp, #-4]!)
    17e0:	e24dd004 	sub	sp, sp, #4
/home/kwilson/Projects/gfe2368/liblpc23xx/lpc23xx-util/printf-lpc.c:102
    va_list args = NULL;
    va_start( args, format );
    17e4:	e28d300c 	add	r3, sp, #12
/home/kwilson/Projects/gfe2368/liblpc23xx/lpc23xx-util/printf-lpc.c:104

    print_lpc(fd, format, args);
    17e8:	e59d1008 	ldr	r1, [sp, #8]
    17ec:	e1a02003 	mov	r2, r3
/home/kwilson/Projects/gfe2368/liblpc23xx/lpc23xx-util/printf-lpc.c:102
/*
 * printf_lpc
 */
void printf_lpc(uartport fd, const char *format, ... ) {
    va_list args = NULL;
    va_start( args, format );
    17f0:	e58d3000 	str	r3, [sp]
/home/kwilson/Projects/gfe2368/liblpc23xx/lpc23xx-util/printf-lpc.c:104

    print_lpc(fd, format, args);
    17f4:	ebffffa4 	bl	168c <print_lpc>
/home/kwilson/Projects/gfe2368/liblpc23xx/lpc23xx-util/printf-lpc.c:105
}
    17f8:	e28dd004 	add	sp, sp, #4
    17fc:	e49de004 	pop	{lr}		; (ldr lr, [sp], #4)
    1800:	e28dd00c 	add	sp, sp, #12
    1804:	e12fff1e 	bx	lr

00001808 <strlen>:
strlen():
/home/kwilson/Projects/summon-arm-toolchain.github/build/arm-elf/newlib/libc/machine/arm/../../../../../../gcc-4.5.2/newlib/libc/machine/arm/strlen.c:66
    1808:	e3c01003 	bic	r1, r0, #3
    180c:	e2100003 	ands	r0, r0, #3
    1810:	e2600000 	rsb	r0, r0, #0
    1814:	e4913004 	ldr	r3, [r1], #4
    1818:	e280c004 	add	ip, r0, #4
    181c:	e1a0c18c 	lsl	ip, ip, #3
    1820:	e3e02000 	mvn	r2, #0
    1824:	11833c32 	orrne	r3, r3, r2, lsr ip
    1828:	e3a0c001 	mov	ip, #1
    182c:	e18cc40c 	orr	ip, ip, ip, lsl #8
    1830:	e18cc80c 	orr	ip, ip, ip, lsl #16
    1834:	e043200c 	sub	r2, r3, ip
    1838:	e1c22003 	bic	r2, r2, r3
    183c:	e012238c 	ands	r2, r2, ip, lsl #7
    1840:	04913004 	ldreq	r3, [r1], #4
    1844:	02800004 	addeq	r0, r0, #4
    1848:	0afffff9 	beq	1834 <strlen+0x2c>
    184c:	e31300ff 	tst	r3, #255	; 0xff
    1850:	12800001 	addne	r0, r0, #1
    1854:	13130cff 	tstne	r3, #65280	; 0xff00
    1858:	12800001 	addne	r0, r0, #1
    185c:	131308ff 	tstne	r3, #16711680	; 0xff0000
    1860:	12800001 	addne	r0, r0, #1
    1864:	e12fff1e 	bx	lr

00001868 <strncpy>:
strncpy():
/home/kwilson/Projects/summon-arm-toolchain.github/build/arm-elf/newlib/libc/string/../../../../../gcc-4.5.2/newlib/libc/string/strncpy.c:96
    1868:	e1813000 	orr	r3, r1, r0
    186c:	e3130003 	tst	r3, #3
    1870:	13a03000 	movne	r3, #0
    1874:	03a03001 	moveq	r3, #1
    1878:	e3520003 	cmp	r2, #3
    187c:	93a03000 	movls	r3, #0
    1880:	82033001 	andhi	r3, r3, #1
    1884:	e3530000 	cmp	r3, #0
/home/kwilson/Projects/summon-arm-toolchain.github/build/arm-elf/newlib/libc/string/../../../../../gcc-4.5.2/newlib/libc/string/strncpy.c:72
    1888:	e92d0030 	push	{r4, r5}
/home/kwilson/Projects/summon-arm-toolchain.github/build/arm-elf/newlib/libc/string/../../../../../gcc-4.5.2/newlib/libc/string/strncpy.c:96
    188c:	e1a0c001 	mov	ip, r1
    1890:	e1a05000 	mov	r5, r0
    1894:	1a00001b 	bne	1908 <strncpy+0xa0>
/home/kwilson/Projects/summon-arm-toolchain.github/build/arm-elf/newlib/libc/string/../../../../../gcc-4.5.2/newlib/libc/string/strncpy.c:113
    1898:	e3520000 	cmp	r2, #0
    189c:	0a000017 	beq	1900 <strncpy+0x98>
/home/kwilson/Projects/summon-arm-toolchain.github/build/arm-elf/newlib/libc/string/../../../../../gcc-4.5.2/newlib/libc/string/strncpy.c:116
    18a0:	e5d14000 	ldrb	r4, [r1]
    18a4:	e1a0c005 	mov	ip, r5
    18a8:	e3540000 	cmp	r4, #0
/home/kwilson/Projects/summon-arm-toolchain.github/build/arm-elf/newlib/libc/string/../../../../../gcc-4.5.2/newlib/libc/string/strncpy.c:115
    18ac:	e2422001 	sub	r2, r2, #1
/home/kwilson/Projects/summon-arm-toolchain.github/build/arm-elf/newlib/libc/string/../../../../../gcc-4.5.2/newlib/libc/string/strncpy.c:116
    18b0:	e4cc4001 	strb	r4, [ip], #1
/home/kwilson/Projects/summon-arm-toolchain.github/gcc-4.5.2/newlib/libc/include/string.h:37
    18b4:	12853002 	addne	r3, r5, #2
/home/kwilson/Projects/summon-arm-toolchain.github/build/arm-elf/newlib/libc/string/../../../../../gcc-4.5.2/newlib/libc/string/strncpy.c:116
    18b8:	0a000008 	beq	18e0 <strncpy+0x78>
/home/kwilson/Projects/summon-arm-toolchain.github/build/arm-elf/newlib/libc/string/../../../../../gcc-4.5.2/newlib/libc/string/strncpy.c:113
    18bc:	e3520000 	cmp	r2, #0
    18c0:	0a00000e 	beq	1900 <strncpy+0x98>
/home/kwilson/Projects/summon-arm-toolchain.github/build/arm-elf/newlib/libc/string/../../../../../gcc-4.5.2/newlib/libc/string/strncpy.c:116
    18c4:	e5f1c001 	ldrb	ip, [r1, #1]!
    18c8:	e35c0000 	cmp	ip, #0
    18cc:	e543c001 	strb	ip, [r3, #-1]
/home/kwilson/Projects/summon-arm-toolchain.github/build/arm-elf/newlib/libc/string/../../../../../gcc-4.5.2/newlib/libc/string/strncpy.c:115
    18d0:	e2422001 	sub	r2, r2, #1
/home/kwilson/Projects/summon-arm-toolchain.github/build/arm-elf/newlib/libc/string/../../../../../gcc-4.5.2/newlib/libc/string/strncpy.c:116
    18d4:	e1a0c003 	mov	ip, r3
    18d8:	e2833001 	add	r3, r3, #1
    18dc:	1afffff6 	bne	18bc <strncpy+0x54>
/home/kwilson/Projects/summon-arm-toolchain.github/build/arm-elf/newlib/libc/string/../../../../../gcc-4.5.2/newlib/libc/string/strncpy.c:120
    18e0:	e3520000 	cmp	r2, #0
    18e4:	13a03000 	movne	r3, #0
/home/kwilson/Projects/summon-arm-toolchain.github/build/arm-elf/newlib/libc/string/../../../../../gcc-4.5.2/newlib/libc/string/strncpy.c:121
    18e8:	11a01003 	movne	r1, r3
/home/kwilson/Projects/summon-arm-toolchain.github/build/arm-elf/newlib/libc/string/../../../../../gcc-4.5.2/newlib/libc/string/strncpy.c:120
    18ec:	0a000003 	beq	1900 <strncpy+0x98>
/home/kwilson/Projects/summon-arm-toolchain.github/build/arm-elf/newlib/libc/string/../../../../../gcc-4.5.2/newlib/libc/string/strncpy.c:121
    18f0:	e7cc1003 	strb	r1, [ip, r3]
    18f4:	e2833001 	add	r3, r3, #1
/home/kwilson/Projects/summon-arm-toolchain.github/build/arm-elf/newlib/libc/string/../../../../../gcc-4.5.2/newlib/libc/string/strncpy.c:120
    18f8:	e1520003 	cmp	r2, r3
    18fc:	1afffffb 	bne	18f0 <strncpy+0x88>
/home/kwilson/Projects/summon-arm-toolchain.github/build/arm-elf/newlib/libc/string/../../../../../gcc-4.5.2/newlib/libc/string/strncpy.c:125
    1900:	e8bd0030 	pop	{r4, r5}
    1904:	e12fff1e 	bx	lr
/home/kwilson/Projects/summon-arm-toolchain.github/build/arm-elf/newlib/libc/string/../../../../../gcc-4.5.2/newlib/libc/string/strncpy.c:103
    1908:	e1a0100c 	mov	r1, ip
    190c:	e49c4004 	ldr	r4, [ip], #4
    1910:	e28434ff 	add	r3, r4, #-16777216	; 0xff000000
    1914:	e2433801 	sub	r3, r3, #65536	; 0x10000
    1918:	e2433c01 	sub	r3, r3, #256	; 0x100
    191c:	e2433001 	sub	r3, r3, #1
    1920:	e1c33004 	bic	r3, r3, r4
    1924:	e3c3347f 	bic	r3, r3, #2130706432	; 0x7f000000
    1928:	e3c3387f 	bic	r3, r3, #8323072	; 0x7f0000
    192c:	e3c33c7f 	bic	r3, r3, #32512	; 0x7f00
    1930:	e3c3307f 	bic	r3, r3, #127	; 0x7f
    1934:	e3530000 	cmp	r3, #0
    1938:	1affffd6 	bne	1898 <strncpy+0x30>
/home/kwilson/Projects/summon-arm-toolchain.github/build/arm-elf/newlib/libc/string/../../../../../gcc-4.5.2/newlib/libc/string/strncpy.c:105
    193c:	e2422004 	sub	r2, r2, #4
/home/kwilson/Projects/summon-arm-toolchain.github/build/arm-elf/newlib/libc/string/../../../../../gcc-4.5.2/newlib/libc/string/strncpy.c:103
    1940:	e3520003 	cmp	r2, #3
/home/kwilson/Projects/summon-arm-toolchain.github/build/arm-elf/newlib/libc/string/../../../../../gcc-4.5.2/newlib/libc/string/strncpy.c:106
    1944:	e4854004 	str	r4, [r5], #4
    1948:	e1a0100c 	mov	r1, ip
/home/kwilson/Projects/summon-arm-toolchain.github/build/arm-elf/newlib/libc/string/../../../../../gcc-4.5.2/newlib/libc/string/strncpy.c:103
    194c:	8affffed 	bhi	1908 <strncpy+0xa0>
    1950:	eaffffd0 	b	1898 <strncpy+0x30>

00001954 <__aeabi_uidiv>:
__aeabi_uidiv():
/home/kwilson/Projects/summon-arm-toolchain.github/build/arm-elf/libgcc/../../../gcc-4.5.2/libgcc/../gcc/config/arm/lib1funcs.asm:961
    1954:	e2512001 	subs	r2, r1, #1
/home/kwilson/Projects/summon-arm-toolchain.github/build/arm-elf/libgcc/../../../gcc-4.5.2/libgcc/../gcc/config/arm/lib1funcs.asm:963
    1958:	012fff1e 	bxeq	lr
/home/kwilson/Projects/summon-arm-toolchain.github/build/arm-elf/libgcc/../../../gcc-4.5.2/libgcc/../gcc/config/arm/lib1funcs.asm:964
    195c:	3a000036 	bcc	1a3c <__aeabi_uidiv+0xe8>
/home/kwilson/Projects/summon-arm-toolchain.github/build/arm-elf/libgcc/../../../gcc-4.5.2/libgcc/../gcc/config/arm/lib1funcs.asm:965
    1960:	e1500001 	cmp	r0, r1
/home/kwilson/Projects/summon-arm-toolchain.github/build/arm-elf/libgcc/../../../gcc-4.5.2/libgcc/../gcc/config/arm/lib1funcs.asm:966
    1964:	9a000022 	bls	19f4 <__aeabi_uidiv+0xa0>
/home/kwilson/Projects/summon-arm-toolchain.github/build/arm-elf/libgcc/../../../gcc-4.5.2/libgcc/../gcc/config/arm/lib1funcs.asm:967
    1968:	e1110002 	tst	r1, r2
/home/kwilson/Projects/summon-arm-toolchain.github/build/arm-elf/libgcc/../../../gcc-4.5.2/libgcc/../gcc/config/arm/lib1funcs.asm:968
    196c:	0a000023 	beq	1a00 <__aeabi_uidiv+0xac>
/home/kwilson/Projects/summon-arm-toolchain.github/build/arm-elf/libgcc/../../../gcc-4.5.2/libgcc/../gcc/config/arm/lib1funcs.asm:593
    1970:	e311020e 	tst	r1, #-536870912	; 0xe0000000
    1974:	01a01181 	lsleq	r1, r1, #3
    1978:	03a03008 	moveq	r3, #8
    197c:	13a03001 	movne	r3, #1
    1980:	e3510201 	cmp	r1, #268435456	; 0x10000000
    1984:	31510000 	cmpcc	r1, r0
    1988:	31a01201 	lslcc	r1, r1, #4
    198c:	31a03203 	lslcc	r3, r3, #4
    1990:	3afffffa 	bcc	1980 <__aeabi_uidiv+0x2c>
    1994:	e3510102 	cmp	r1, #-2147483648	; 0x80000000
    1998:	31510000 	cmpcc	r1, r0
    199c:	31a01081 	lslcc	r1, r1, #1
    19a0:	31a03083 	lslcc	r3, r3, #1
    19a4:	3afffffa 	bcc	1994 <__aeabi_uidiv+0x40>
    19a8:	e3a02000 	mov	r2, #0
    19ac:	e1500001 	cmp	r0, r1
    19b0:	20400001 	subcs	r0, r0, r1
    19b4:	21822003 	orrcs	r2, r2, r3
    19b8:	e15000a1 	cmp	r0, r1, lsr #1
    19bc:	204000a1 	subcs	r0, r0, r1, lsr #1
    19c0:	218220a3 	orrcs	r2, r2, r3, lsr #1
    19c4:	e1500121 	cmp	r0, r1, lsr #2
    19c8:	20400121 	subcs	r0, r0, r1, lsr #2
    19cc:	21822123 	orrcs	r2, r2, r3, lsr #2
    19d0:	e15001a1 	cmp	r0, r1, lsr #3
    19d4:	204001a1 	subcs	r0, r0, r1, lsr #3
    19d8:	218221a3 	orrcs	r2, r2, r3, lsr #3
    19dc:	e3500000 	cmp	r0, #0
    19e0:	11b03223 	lsrsne	r3, r3, #4
    19e4:	11a01221 	lsrne	r1, r1, #4
    19e8:	1affffef 	bne	19ac <__aeabi_uidiv+0x58>
/home/kwilson/Projects/summon-arm-toolchain.github/build/arm-elf/libgcc/../../../gcc-4.5.2/libgcc/../gcc/config/arm/lib1funcs.asm:972
    19ec:	e1a00002 	mov	r0, r2
/home/kwilson/Projects/summon-arm-toolchain.github/build/arm-elf/libgcc/../../../gcc-4.5.2/libgcc/../gcc/config/arm/lib1funcs.asm:973
    19f0:	e12fff1e 	bx	lr
/home/kwilson/Projects/summon-arm-toolchain.github/build/arm-elf/libgcc/../../../gcc-4.5.2/libgcc/../gcc/config/arm/lib1funcs.asm:976
    19f4:	03a00001 	moveq	r0, #1
/home/kwilson/Projects/summon-arm-toolchain.github/build/arm-elf/libgcc/../../../gcc-4.5.2/libgcc/../gcc/config/arm/lib1funcs.asm:977
    19f8:	13a00000 	movne	r0, #0
/home/kwilson/Projects/summon-arm-toolchain.github/build/arm-elf/libgcc/../../../gcc-4.5.2/libgcc/../gcc/config/arm/lib1funcs.asm:978
    19fc:	e12fff1e 	bx	lr
/home/kwilson/Projects/summon-arm-toolchain.github/build/arm-elf/libgcc/../../../gcc-4.5.2/libgcc/../gcc/config/arm/lib1funcs.asm:660
    1a00:	e3510801 	cmp	r1, #65536	; 0x10000
    1a04:	21a01821 	lsrcs	r1, r1, #16
    1a08:	23a02010 	movcs	r2, #16
    1a0c:	33a02000 	movcc	r2, #0
    1a10:	e3510c01 	cmp	r1, #256	; 0x100
    1a14:	21a01421 	lsrcs	r1, r1, #8
    1a18:	22822008 	addcs	r2, r2, #8
    1a1c:	e3510010 	cmp	r1, #16
    1a20:	21a01221 	lsrcs	r1, r1, #4
    1a24:	22822004 	addcs	r2, r2, #4
    1a28:	e3510004 	cmp	r1, #4
    1a2c:	82822003 	addhi	r2, r2, #3
    1a30:	908220a1 	addls	r2, r2, r1, lsr #1
/home/kwilson/Projects/summon-arm-toolchain.github/build/arm-elf/libgcc/../../../gcc-4.5.2/libgcc/../gcc/config/arm/lib1funcs.asm:982
    1a34:	e1a00230 	lsr	r0, r0, r2
/home/kwilson/Projects/summon-arm-toolchain.github/build/arm-elf/libgcc/../../../gcc-4.5.2/libgcc/../gcc/config/arm/lib1funcs.asm:983
    1a38:	e12fff1e 	bx	lr
/home/kwilson/Projects/summon-arm-toolchain.github/build/arm-elf/libgcc/../../../gcc-4.5.2/libgcc/../gcc/config/arm/lib1funcs.asm:987
    1a3c:	e52de008 	str	lr, [sp, #-8]!
    1a40:	eb00003c 	bl	1b38 <__div0>
    1a44:	e3a00000 	mov	r0, #0
/home/kwilson/Projects/summon-arm-toolchain.github/build/arm-elf/libgcc/../../../gcc-4.5.2/libgcc/../gcc/config/arm/lib1funcs.asm:234
    1a48:	e49df008 	ldr	pc, [sp], #8

00001a4c <__aeabi_uidivmod>:
__aeabi_uidivmod():
/home/kwilson/Projects/summon-arm-toolchain.github/build/arm-elf/libgcc/../../../gcc-4.5.2/libgcc/../gcc/config/arm/lib1funcs.asm:1001
    1a4c:	e3510000 	cmp	r1, #0
/home/kwilson/Projects/summon-arm-toolchain.github/build/arm-elf/libgcc/../../../gcc-4.5.2/libgcc/../gcc/config/arm/lib1funcs.asm:1002
    1a50:	0afffff9 	beq	1a3c <__aeabi_uidiv+0xe8>
/home/kwilson/Projects/summon-arm-toolchain.github/build/arm-elf/libgcc/../../../gcc-4.5.2/libgcc/../gcc/config/arm/lib1funcs.asm:1003
    1a54:	e92d4003 	push	{r0, r1, lr}
/home/kwilson/Projects/summon-arm-toolchain.github/build/arm-elf/libgcc/../../../gcc-4.5.2/libgcc/../gcc/config/arm/lib1funcs.asm:1004
    1a58:	ebffffbd 	bl	1954 <__aeabi_uidiv>
/home/kwilson/Projects/summon-arm-toolchain.github/build/arm-elf/libgcc/../../../gcc-4.5.2/libgcc/../gcc/config/arm/lib1funcs.asm:1005
    1a5c:	e8bd4006 	pop	{r1, r2, lr}
/home/kwilson/Projects/summon-arm-toolchain.github/build/arm-elf/libgcc/../../../gcc-4.5.2/libgcc/../gcc/config/arm/lib1funcs.asm:1006
    1a60:	e0030092 	mul	r3, r2, r0
/home/kwilson/Projects/summon-arm-toolchain.github/build/arm-elf/libgcc/../../../gcc-4.5.2/libgcc/../gcc/config/arm/lib1funcs.asm:1007
    1a64:	e0411003 	sub	r1, r1, r3
/home/kwilson/Projects/summon-arm-toolchain.github/build/arm-elf/libgcc/../../../gcc-4.5.2/libgcc/../gcc/config/arm/lib1funcs.asm:1008
    1a68:	e12fff1e 	bx	lr

00001a6c <__umodsi3>:
__umodsi3():
/home/kwilson/Projects/summon-arm-toolchain.github/build/arm-elf/libgcc/../../../gcc-4.5.2/libgcc/../gcc/config/arm/lib1funcs.asm:1037
    1a6c:	e2512001 	subs	r2, r1, #1
/home/kwilson/Projects/summon-arm-toolchain.github/build/arm-elf/libgcc/../../../gcc-4.5.2/libgcc/../gcc/config/arm/lib1funcs.asm:1038
    1a70:	3a00002c 	bcc	1b28 <__umodsi3+0xbc>
/home/kwilson/Projects/summon-arm-toolchain.github/build/arm-elf/libgcc/../../../gcc-4.5.2/libgcc/../gcc/config/arm/lib1funcs.asm:1039
    1a74:	11500001 	cmpne	r0, r1
/home/kwilson/Projects/summon-arm-toolchain.github/build/arm-elf/libgcc/../../../gcc-4.5.2/libgcc/../gcc/config/arm/lib1funcs.asm:1040
    1a78:	03a00000 	moveq	r0, #0
/home/kwilson/Projects/summon-arm-toolchain.github/build/arm-elf/libgcc/../../../gcc-4.5.2/libgcc/../gcc/config/arm/lib1funcs.asm:1041
    1a7c:	81110002 	tsthi	r1, r2
/home/kwilson/Projects/summon-arm-toolchain.github/build/arm-elf/libgcc/../../../gcc-4.5.2/libgcc/../gcc/config/arm/lib1funcs.asm:1042
    1a80:	00000002 	andeq	r0, r0, r2
/home/kwilson/Projects/summon-arm-toolchain.github/build/arm-elf/libgcc/../../../gcc-4.5.2/libgcc/../gcc/config/arm/lib1funcs.asm:1043
    1a84:	912fff1e 	bxls	lr
/home/kwilson/Projects/summon-arm-toolchain.github/build/arm-elf/libgcc/../../../gcc-4.5.2/libgcc/../gcc/config/arm/lib1funcs.asm:708
    1a88:	e3a02000 	mov	r2, #0
    1a8c:	e3510201 	cmp	r1, #268435456	; 0x10000000
    1a90:	31510000 	cmpcc	r1, r0
    1a94:	31a01201 	lslcc	r1, r1, #4
    1a98:	32822004 	addcc	r2, r2, #4
    1a9c:	3afffffa 	bcc	1a8c <__umodsi3+0x20>
    1aa0:	e3510102 	cmp	r1, #-2147483648	; 0x80000000
    1aa4:	31510000 	cmpcc	r1, r0
    1aa8:	31a01081 	lslcc	r1, r1, #1
    1aac:	32822001 	addcc	r2, r2, #1
    1ab0:	3afffffa 	bcc	1aa0 <__umodsi3+0x34>
    1ab4:	e2522003 	subs	r2, r2, #3
    1ab8:	ba00000e 	blt	1af8 <__umodsi3+0x8c>
    1abc:	e1500001 	cmp	r0, r1
    1ac0:	20400001 	subcs	r0, r0, r1
    1ac4:	e15000a1 	cmp	r0, r1, lsr #1
    1ac8:	204000a1 	subcs	r0, r0, r1, lsr #1
    1acc:	e1500121 	cmp	r0, r1, lsr #2
    1ad0:	20400121 	subcs	r0, r0, r1, lsr #2
    1ad4:	e15001a1 	cmp	r0, r1, lsr #3
    1ad8:	204001a1 	subcs	r0, r0, r1, lsr #3
    1adc:	e3500001 	cmp	r0, #1
    1ae0:	e1a01221 	lsr	r1, r1, #4
    1ae4:	a2522004 	subsge	r2, r2, #4
    1ae8:	aafffff3 	bge	1abc <__umodsi3+0x50>
    1aec:	e3120003 	tst	r2, #3
    1af0:	13300000 	teqne	r0, #0
    1af4:	0a00000a 	beq	1b24 <__umodsi3+0xb8>
    1af8:	e3720002 	cmn	r2, #2
    1afc:	ba000006 	blt	1b1c <__umodsi3+0xb0>
    1b00:	0a000002 	beq	1b10 <__umodsi3+0xa4>
    1b04:	e1500001 	cmp	r0, r1
    1b08:	20400001 	subcs	r0, r0, r1
    1b0c:	e1a010a1 	lsr	r1, r1, #1
    1b10:	e1500001 	cmp	r0, r1
    1b14:	20400001 	subcs	r0, r0, r1
    1b18:	e1a010a1 	lsr	r1, r1, #1
    1b1c:	e1500001 	cmp	r0, r1
    1b20:	20400001 	subcs	r0, r0, r1
/home/kwilson/Projects/summon-arm-toolchain.github/build/arm-elf/libgcc/../../../gcc-4.5.2/libgcc/../gcc/config/arm/lib1funcs.asm:1047
    1b24:	e12fff1e 	bx	lr
/home/kwilson/Projects/summon-arm-toolchain.github/build/arm-elf/libgcc/../../../gcc-4.5.2/libgcc/../gcc/config/arm/lib1funcs.asm:1051
    1b28:	e52de008 	str	lr, [sp, #-8]!
    1b2c:	eb000001 	bl	1b38 <__div0>
    1b30:	e3a00000 	mov	r0, #0
/home/kwilson/Projects/summon-arm-toolchain.github/build/arm-elf/libgcc/../../../gcc-4.5.2/libgcc/../gcc/config/arm/lib1funcs.asm:234
    1b34:	e49df008 	ldr	pc, [sp], #8

00001b38 <__div0>:
__div0():
/home/kwilson/Projects/summon-arm-toolchain.github/build/arm-elf/libgcc/../../../gcc-4.5.2/libgcc/../gcc/config/arm/lib1funcs.asm:1242
    1b38:	e12fff1e 	bx	lr
    1b3c:	72616f62 	.word	0x72616f62
    1b40:	6e6f5f64 	.word	0x6e6f5f64
    1b44:	00000a65 	.word	0x00000a65
    1b48:	72616f62 	.word	0x72616f62
    1b4c:	6e6f2064 	.word	0x6e6f2064
    1b50:	00000065 	.word	0x00000065
    1b54:	2a2a2a0a 	.word	0x2a2a2a0a
    1b58:	72617453 	.word	0x72617453
    1b5c:	676e6974 	.word	0x676e6974
    1b60:	65666720 	.word	0x65666720
    1b64:	6c6f6320 	.word	0x6c6f6320
    1b68:	6c20726f 	.word	0x6c20726f
    1b6c:	74206465 	.word	0x74206465
    1b70:	2a747365 	.word	0x2a747365
    1b74:	0a0a2a2a 	.word	0x0a0a2a2a
    1b78:	00000000 	.word	0x00000000
    1b7c:	2a2a2a0a 	.word	0x2a2a2a0a
    1b80:	72616f42 	.word	0x72616f42
    1b84:	73692064 	.word	0x73692064
    1b88:	66656420 	.word	0x66656420
    1b8c:	64656e69 	.word	0x64656e69
    1b90:	3a736120 	.word	0x3a736120
    1b94:	00000020 	.word	0x00000020
    1b98:	2a2a2a0a 	.word	0x2a2a2a0a
    1b9c:	73706320 	.word	0x73706320
    1ba0:	65642072 	.word	0x65642072
    1ba4:	65646f63 	.word	0x65646f63
    1ba8:	61747320 	.word	0x61747320
    1bac:	2a207472 	.word	0x2a207472
    1bb0:	000a2a2a 	.word	0x000a2a2a
    1bb4:	6f636544 	.word	0x6f636544
    1bb8:	676e6964 	.word	0x676e6964
    1bbc:	73706320 	.word	0x73706320
    1bc0:	30203a72 	.word	0x30203a72
    1bc4:	0a622562 	.word	0x0a622562
    1bc8:	00000000 	.word	0x00000000
    1bcc:	766f5f76 	.word	0x766f5f76
    1bd0:	6c667265 	.word	0x6c667265
    1bd4:	093a776f 	.word	0x093a776f
    1bd8:	2e642509 	.word	0x2e642509
    1bdc:	0000000a 	.word	0x0000000a
    1be0:	61635f63 	.word	0x61635f63
    1be4:	3a797272 	.word	0x3a797272
    1be8:	64250909 	.word	0x64250909
    1bec:	00000a2e 	.word	0x00000a2e
    1bf0:	657a5f7a 	.word	0x657a5f7a
    1bf4:	093a6f72 	.word	0x093a6f72
    1bf8:	64250909 	.word	0x64250909
    1bfc:	00000a2e 	.word	0x00000a2e
    1c00:	656e5f6e 	.word	0x656e5f6e
    1c04:	69746167 	.word	0x69746167
    1c08:	093a6576 	.word	0x093a6576
    1c0c:	2e642509 	.word	0x2e642509
    1c10:	0000000a 	.word	0x0000000a
    1c14:	68745f74 	.word	0x68745f74
    1c18:	6d626d75 	.word	0x6d626d75
    1c1c:	3a65646f 	.word	0x3a65646f
    1c20:	64250909 	.word	0x64250909
    1c24:	00000a2e 	.word	0x00000a2e
    1c28:	3a515249 	.word	0x3a515249
    1c2c:	25090909 	.word	0x25090909
    1c30:	64282064 	.word	0x64282064
    1c34:	62617369 	.word	0x62617369
    1c38:	2964656c 	.word	0x2964656c
    1c3c:	00000a2e 	.word	0x00000a2e
    1c40:	3a515249 	.word	0x3a515249
    1c44:	25090909 	.word	0x25090909
    1c48:	65282064 	.word	0x65282064
    1c4c:	6c62616e 	.word	0x6c62616e
    1c50:	2e296465 	.word	0x2e296465
    1c54:	0000000a 	.word	0x0000000a
    1c58:	3a514946 	.word	0x3a514946
    1c5c:	25090909 	.word	0x25090909
    1c60:	64282064 	.word	0x64282064
    1c64:	62617369 	.word	0x62617369
    1c68:	2964656c 	.word	0x2964656c
    1c6c:	00000a2e 	.word	0x00000a2e
    1c70:	3a514946 	.word	0x3a514946
    1c74:	25090909 	.word	0x25090909
    1c78:	65282064 	.word	0x65282064
    1c7c:	6c62616e 	.word	0x6c62616e
    1c80:	2e296465 	.word	0x2e296465
    1c84:	0000000a 	.word	0x0000000a
    1c88:	65646f4d 	.word	0x65646f4d
    1c8c:	00000a3a 	.word	0x00000a3a
    1c90:	75532020 	.word	0x75532020
    1c94:	76726570 	.word	0x76726570
    1c98:	726f7369 	.word	0x726f7369
    1c9c:	646f4d20 	.word	0x646f4d20
    1ca0:	30093a65 	.word	0x30093a65
    1ca4:	0a782578 	.word	0x0a782578
    1ca8:	00000000 	.word	0x00000000
    1cac:	62412020 	.word	0x62412020
    1cb0:	2074726f 	.word	0x2074726f
    1cb4:	65646f4d 	.word	0x65646f4d
    1cb8:	7830093a 	.word	0x7830093a
    1cbc:	000a7825 	.word	0x000a7825
    1cc0:	6e552020 	.word	0x6e552020
    1cc4:	69666564 	.word	0x69666564
    1cc8:	2064656e 	.word	0x2064656e
    1ccc:	65646f4d 	.word	0x65646f4d
    1cd0:	7830093a 	.word	0x7830093a
    1cd4:	000a7825 	.word	0x000a7825
    1cd8:	79532020 	.word	0x79532020
    1cdc:	6d657473 	.word	0x6d657473
    1ce0:	646f4d20 	.word	0x646f4d20
    1ce4:	30093a65 	.word	0x30093a65
    1ce8:	0a782578 	.word	0x0a782578
    1cec:	00000000 	.word	0x00000000
    1cf0:	6e552020 	.word	0x6e552020
    1cf4:	776f6e6b 	.word	0x776f6e6b
    1cf8:	6f4d206e 	.word	0x6f4d206e
    1cfc:	093a6564 	.word	0x093a6564
    1d00:	78257830 	.word	0x78257830
    1d04:	0000000a 	.word	0x0000000a
    1d08:	2a2a2a0a 	.word	0x2a2a2a0a
    1d0c:	73706320 	.word	0x73706320
    1d10:	65642072 	.word	0x65642072
    1d14:	65646f63 	.word	0x65646f63
    1d18:	646e6520 	.word	0x646e6520
    1d1c:	2a2a2a20 	.word	0x2a2a2a20
    1d20:	0000000a 	.word	0x0000000a
    1d24:	33323130 	.word	0x33323130
    1d28:	37363534 	.word	0x37363534
    1d2c:	62613938 	.word	0x62613938
    1d30:	66656463 	.word	0x66656463
    1d34:	00000000 	.word	0x00000000
